(dp0
S'having no history'
p1
(lp2
(lp3
S'having'
p4
aS'no'
p5
aasS'brothers sisters'
p6
(lp7
(lp8
S'brothers'
p9
aS'sisters'
p10
aasS'59 age'
p11
(lp12
(lp13
S'59'
p14
aS'age'
p15
aasS'medical family history'
p16
(lp17
(lp18
S'medical'
p19
aS'family'
p20
aS'history'
p21
aa(lp22
S'medical'
p23
aS'family'
p24
aasS'doing well'
p25
(lp26
(lp27
S'doing'
p28
aS'well'
p29
aasS'vaginal delivery mother'
p30
(lp31
(lp32
S'vaginal'
p33
aS'delivery'
p34
aasS'two she'
p35
(lp36
(lp37
S'two'
p38
aS'she'
p39
aasS'similar symptoms'
p40
(lp41
(lp42
S'similar'
p43
aS'symptoms'
p44
aasS'cabg had'
p45
(lp46
(lp47
S'cabg'
p48
aS'had'
p49
aasS'present illness'
p50
(lp51
(lp52
S'present'
p53
aS'illness'
p54
aasS'tumor brain brother'
p55
(lp56
(lp57
S'tumor'
p58
aS'brain'
p59
aasS'70 age'
p60
(lp61
(lp62
S'70'
p63
aS'age'
p64
aasS'brothers two'
p65
(lp66
(lp67
S'brothers'
p68
aS'two'
p69
aasS'old years'
p70
(lp71
(lp72
S'old'
p73
aS'years'
p74
aasS'significant family'
p75
(lp76
(lp77
S'significant'
p78
aS'family'
p79
aasS'had father'
p80
(lp81
(lp82
S'had'
p83
aS'father'
p84
aasS'here his'
p85
(lp86
(lp87
S'here'
p88
aS'his'
p89
aasS'pain ear mom'
p90
(lp91
(lp92
S'pain'
p93
aS'mom'
p94
aasS'did she'
p95
(lp96
(lp97
S'did'
p98
aS'she'
p99
aasS'wife his'
p100
(lp101
(lp102
S'wife'
p103
aS'his'
p104
aasS'one sister'
p105
(lp106
(lp107
S'one'
p108
aS'sister'
p109
aasS'abuse alcohol'
p110
(lp111
(lp112
S'abuse'
p113
aS'alcohol'
p114
aasS'died who'
p115
(lp116
(lp117
S'died'
p118
aS'who'
p119
aasS'her mother'
p120
(lp121
(lp122
S'her'
p123
aS'mother'
p124
aasS'type had'
p125
(lp126
(lp127
S'type'
p128
aS'had'
p129
aasS'died father her'
p130
(lp131
(lp132
S'died'
p133
aS'father'
p134
aS'her'
p135
aasS'present illness this'
p136
(lp137
(lp138
S'present'
p139
aS'illness'
p140
aS'this'
p141
aasS'admits history'
p142
(lp143
(lp144
S'admits'
p145
aS'history'
p146
aasS'brother his'
p147
(lp148
(lp149
S'brother'
p150
aS'his'
p151
aasS'concerned about'
p152
(lp153
(lp154
S'concerned'
p155
aS'about'
p156
aasS'present history'
p157
(lp158
(lp159
S'present'
p160
aS'history'
p161
aasS'disease have'
p162
(lp163
(lp164
S'disease'
p165
aS'have'
p166
aasS'stroke had'
p167
(lp168
(lp169
S'stroke'
p170
aS'had'
p171
aasS'today his'
p172
(lp173
(lp174
S'today'
p175
aS'his'
p176
aasS'currently old years'
p177
(lp178
(lp179
S'currently'
p180
aS'years'
p181
aasS'9 age'
p182
(lp183
(lp184
S'9'
p185
aS'age'
p186
aasS'transcription report sample medical'
p187
(lp188
(lp189
S'transcription'
p190
aS'report'
p191
aS'sample'
p192
aa(lp193
S'transcription'
p194
aS'report'
p195
aa(lp196
S'transcription'
p197
aS'sample'
p198
aS'medical'
p199
aa(lp200
S'transcription'
p201
aS'sample'
p202
aa(lp203
S'transcription'
p204
aS'medical'
p205
aasS'heart disease'
p206
(lp207
(lp208
S'heart'
p209
aS'disease'
p210
aasS'have father'
p211
(lp212
(lp213
S'have'
p214
aS'father'
p215
aasS'report sample medical'
p216
(lp217
(lp218
S'report'
p219
aS'sample'
p220
aasS'80 age'
p221
(lp222
(lp223
S'80'
p224
aS'age'
p225
aasS'medicine general'
p226
(lp227
(lp228
S'medicine'
p229
aS'general'
p230
aasS'illness patient history'
p231
(lp232
(lp233
S'illness'
p234
aS'patient'
p235
aasS'both father'
p236
(lp237
(lp238
S'both'
p239
aS'father'
p240
aasS'son her'
p241
(lp242
(lp243
S'son'
p244
aS'her'
p245
aasS'no there'
p246
(lp247
(lp248
S'no'
p249
aS'there'
p250
aasS'maternal who'
p251
(lp252
(lp253
S'maternal'
p254
aS'who'
p255
aasS'died her'
p256
(lp257
(lp258
S'died'
p259
aS'her'
p260
aasS'grandfather maternal'
p261
(lp262
(lp263
S'grandfather'
p264
aS'maternal'
p265
aasS'wellchild check mother'
p266
(lp267
(lp268
S'wellchild'
p269
aS'check'
p270
aasS'artery disease father coronary history'
p271
(lp272
(lp273
S'artery'
p274
aS'disease'
p275
aS'father'
p276
aasS'also sister'
p277
(lp278
(lp279
S'also'
p280
aS'sister'
p281
aasS'fhx died father'
p282
(lp283
(lp284
S'fhx'
p285
aS'died'
p286
aS'father'
p287
aasS'deceased father'
p288
(lp289
(lp290
S'deceased'
p291
aS'father'
p292
aasS'kidney failure'
p293
(lp294
(lp295
S'kidney'
p296
aS'failure'
p297
aasS'father his'
p298
(lp299
(lp300
S'father'
p301
aS'his'
p302
aasS'mom his'
p303
(lp304
(lp305
S'mom'
p306
aS'his'
p307
aasS'side father'
p308
(lp309
(lp310
S'side'
p311
aS'father'
p312
aasS'upper been not had'
p313
(lp314
(lp315
S'upper'
p316
aS'not'
p317
aS'had'
p318
aa(lp319
S'upper'
p320
aS'not'
p321
aa(lp322
S'upper'
p323
aS'had'
p324
aasS'paternal grandmother'
p325
(lp326
(lp327
S'paternal'
p328
aS'grandmother'
p329
aasS'very well'
p330
(lp331
(lp332
S'very'
p333
aS'well'
p334
aasS'social she history'
p335
(lp336
(lp337
S'social'
p338
aS'she'
p339
aS'history'
p340
aa(lp341
S'social'
p342
aS'she'
p343
aasS'now years'
p344
(lp345
(lp346
S'now'
p347
aS'years'
p348
aasS'significant family history'
p349
(lp350
(lp351
S'significant'
p352
aS'family'
p353
aS'history'
p354
aasS'ho htn fhx'
p355
(lp356
(lp357
S'ho'
p358
aS'htn'
p359
aasS'admits patient'
p360
(lp361
(lp362
S'admits'
p363
aS'patient'
p364
aasS'grandfather had'
p365
(lp366
(lp367
S'grandfather'
p368
aS'had'
p369
aasS'associated history mother'
p370
(lp371
(lp372
S'associated'
p373
aS'mother'
p374
aasS'brother who'
p375
(lp376
(lp377
S'brother'
p378
aS'who'
p379
aasS'alzheimer grandmother disease'
p380
(lp381
(lp382
S'alzheimer'
p383
aS'disease'
p384
aasS'pain ear'
p385
(lp386
(lp387
S'pain'
p388
aS'ear'
p389
aasS'aunt maternal'
p390
(lp391
(lp392
S'aunt'
p393
aS'maternal'
p394
aasS'technique description obtained informed consent patient'
p395
(lp396
(lp397
S'technique'
p398
aS'description'
p399
aasS'stroke hypertension father'
p400
(lp401
(lp402
S'stroke'
p403
aS'hypertension'
p404
aasS'mom her'
p405
(lp406
(lp407
S'mom'
p408
aS'her'
p409
aasS'psychiatric family'
p410
(lp411
(lp412
S'psychiatric'
p413
aS'family'
p414
aasS'here her'
p415
(lp416
(lp417
S'here'
p418
aS'her'
p419
aasS'one brother'
p420
(lp421
(lp422
S'one'
p423
aS'brother'
p424
aasS'32 age'
p425
(lp426
(lp427
S'32'
p428
aS'age'
p429
aasS'been father'
p430
(lp431
(lp432
S'been'
p433
aS'father'
p434
aasS'mi age'
p435
(lp436
(lp437
S'mi'
p438
aS'age'
p439
aasS'having some'
p440
(lp441
(lp442
S'having'
p443
aS'some'
p444
aasS'sample medical'
p445
(lp446
(lp447
S'sample'
p448
aS'medical'
p449
aasS'alive mother'
p450
(lp451
(lp452
S'alive'
p453
aS'mother'
p454
aasS'type sample'
p455
(lp456
(lp457
S'type'
p458
aS'sample'
p459
aasS'because there'
p460
(lp461
(lp462
S'because'
p463
aS'there'
p464
aasS'does not'
p465
(lp466
(lp467
S'does'
p468
aS'not'
p469
aasS'male white'
p470
(lp471
(lp472
S'male'
p473
aS'white'
p474
aasS'hypertension mother'
p475
(lp476
(lp477
S'hypertension'
p478
aS'mother'
p479
aasS'general name type description sample'
p480
(lp481
(lp482
S'general'
p483
aS'type'
p484
aS'sample'
p485
aa(lp486
S'general'
p487
aS'type'
p488
aa(lp489
S'general'
p490
aS'sample'
p491
aasS'complaining mother'
p492
(lp493
(lp494
S'complaining'
p495
aS'mother'
p496
aasS'79 family father age history'
p497
(lp498
(lp499
S'79'
p500
aS'father'
p501
aS'age'
p502
aa(lp503
S'79'
p504
aS'father'
p505
aasS'doing well been mother'
p506
(lp507
(lp508
S'doing'
p509
aS'well'
p510
aS'been'
p511
aa(lp512
S'doing'
p513
aS'been'
p514
aasS'59 died age father'
p515
(lp516
(lp517
S'59'
p518
aS'died'
p519
aS'age'
p520
aa(lp521
S'59'
p522
aS'died'
p523
aasS'medication father his'
p524
(lp525
(lp526
S'medication'
p527
aS'father'
p528
aS'his'
p529
aa(lp530
S'medication'
p531
aS'father'
p532
aasS'fhx died'
p533
(lp534
(lp535
S'fhx'
p536
aS'died'
p537
aasS'reports his'
p538
(lp539
(lp540
S'reports'
p541
aS'his'
p542
aasS'associated maternal family patient history'
p543
(lp544
(lp545
S'associated'
p546
aS'maternal'
p547
aasS'brothers sisters no'
p548
(lp549
(lp550
S'brothers'
p551
aS'no'
p552
aasS'maternal grandmother'
p553
(lp554
(lp555
S'maternal'
p556
aS'grandmother'
p557
aasS'states she'
p558
(lp559
(lp560
S'states'
p561
aS'she'
p562
aasS'subjective transcription report sample medical'
p563
(lp564
(lp565
S'subjective'
p566
aS'report'
p567
aS'sample'
p568
aa(lp569
S'subjective'
p570
aS'report'
p571
aa(lp572
S'subjective'
p573
aS'sample'
p574
aasS'being after mother'
p575
(lp576
(lp577
S'being'
p578
aS'after'
p579
aasS'technique obtained informed consent patient'
p580
(lp581
(lp582
S'technique'
p583
aS'informed'
p584
aS'consent'
p585
aa(lp586
S'technique'
p587
aS'informed'
p588
aa(lp589
S'technique'
p590
aS'consent'
p591
aasS'medical history'
p592
(lp593
(lp594
S'medical'
p595
aS'history'
p596
aasS'mi had'
p597
(lp598
(lp599
S'mi'
p600
aS'had'
p601
aasS'htn father fhx'
p602
(lp603
(lp604
S'htn'
p605
aS'father'
p606
aasS'patient history'
p607
(lp608
(lp609
S'patient'
p610
aS'history'
p611
aasS'79 age'
p612
(lp613
(lp614
S'79'
p615
aS'age'
p616
aasS'family history'
p617
(lp618
(lp619
S'family'
p620
aS'history'
p621
aasS'ages daughters two'
p622
(lp623
(lp624
S'ages'
p625
aS'daughters'
p626
aS'two'
p627
aa(lp628
S'ages'
p629
aS'daughters'
p630
aasS'present this'
p631
(lp632
(lp633
S'present'
p634
aS'this'
p635
aasS'died mother'
p636
(lp637
(lp638
S'died'
p639
aS'mother'
p640
aasS'sister his'
p641
(lp642
(lp643
S'sister'
p644
aS'his'
p645
aasS'ago years'
p646
(lp647
(lp648
S'ago'
p649
aS'years'
p650
aasS'so she'
p651
(lp652
(lp653
S'so'
p654
aS'she'
p655
aasS'siblings age brother'
p656
(lp657
(lp658
S'siblings'
p659
aS'age'
p660
aS'brother'
p661
aa(lp662
S'siblings'
p663
aS'age'
p664
aasS'concerns mother'
p665
(lp666
(lp667
S'concerns'
p668
aS'mother'
p669
aasS'did not'
p670
(lp671
(lp672
S'did'
p673
aS'not'
p674
aasS'reports mother'
p675
(lp676
(lp677
S'reports'
p678
aS'mother'
p679
aasS'failure heart died'
p680
(lp681
(lp682
S'failure'
p683
aS'heart'
p684
aasS'lives his'
p685
(lp686
(lp687
S'lives'
p688
aS'his'
p689
aasS'other but'
p690
(lp691
(lp692
S'other'
p693
aS'but'
p694
aasS'breast cancer'
p695
(lp696
(lp697
S'breast'
p698
aS'cancer'
p699
aasS'also father'
p700
(lp701
(lp702
S'also'
p703
aS'father'
p704
aasS'siblings brother'
p705
(lp706
(lp707
S'siblings'
p708
aS'brother'
p709
aasS'12 years brother who'
p710
(lp711
(lp712
S'12'
p713
aS'years'
p714
aasS'two had'
p715
(lp716
(lp717
S'two'
p718
aS'had'
p719
aasS'taking medications his'
p720
(lp721
(lp722
S'taking'
p723
aS'his'
p724
aasS'psychiatric history'
p725
(lp726
(lp727
S'psychiatric'
p728
aS'history'
p729
aasS'colon cancer'
p730
(lp731
(lp732
S'colon'
p733
aS'cancer'
p734
aasS'female who'
p735
(lp736
(lp737
S'female'
p738
aS'who'
p739
aasS'mi died'
p740
(lp741
(lp742
S'mi'
p743
aS'died'
p744
aasS'infarction myocardial died'
p745
(lp746
(lp747
S'infarction'
p748
aS'myocardial'
p749
aasS'sons two'
p750
(lp751
(lp752
S'sons'
p753
aS'two'
p754
aasS'his mother'
p755
(lp756
(lp757
S'his'
p758
aS'mother'
p759
aasS'sisters one'
p760
(lp761
(lp762
S'sisters'
p763
aS'one'
p764
aasS'other no'
p765
(lp766
(lp767
S'other'
p768
aS'no'
p769
aasS'lives patient'
p770
(lp771
(lp772
S'lives'
p773
aS'patient'
p774
aasS'states mother'
p775
(lp776
(lp777
S'states'
p778
aS'mother'
p779
aasS'significant history'
p780
(lp781
(lp782
S'significant'
p783
aS'history'
p784
aasS'good health'
p785
(lp786
(lp787
S'good'
p788
aS'health'
p789
aasS'male here his mother'
p790
(lp791
(lp792
S'male'
p793
aS'here'
p794
aasS'next day'
p795
(lp796
(lp797
S'next'
p798
aS'day'
p799
aasS'gen name description sample'
p800
(lp801
(lp802
S'gen'
p803
aS'name'
p804
aasS'who mother'
p805
(lp806
(lp807
S'who'
p808
aS'mother'
p809
aasS'both lives history'
p810
(lp811
(lp812
S'both'
p813
aS'lives'
p814
aasS'coronary disease'
p815
(lp816
(lp817
S'coronary'
p818
aS'disease'
p819
aasS'congestive failure heart died'
p820
(lp821
(lp822
S'congestive'
p823
aS'failure'
p824
aS'heart'
p825
aa(lp826
S'congestive'
p827
aS'failure'
p828
aa(lp829
S'congestive'
p830
aS'heart'
p831
aasS'obtained informed consent'
p832
(lp833
(lp834
S'obtained'
p835
aS'consent'
p836
aasS'office his'
p837
(lp838
(lp839
S'office'
p840
aS'his'
p841
aasS'fhx father'
p842
(lp843
(lp844
S'fhx'
p845
aS'father'
p846
aasS'prostate cancer'
p847
(lp848
(lp849
S'prostate'
p850
aS'cancer'
p851
aasS'grandmother died'
p852
(lp853
(lp854
S'grandmother'
p855
aS'died'
p856
aasS'healthy who'
p857
(lp858
(lp859
S'healthy'
p860
aS'who'
p861
aasS'ages two'
p862
(lp863
(lp864
S'ages'
p865
aS'two'
p866
aasS'siblings two brother age'
p867
(lp868
(lp869
S'siblings'
p870
aS'two'
p871
aS'brother'
p872
aa(lp873
S'siblings'
p874
aS'two'
p875
aasS'does not patient'
p876
(lp877
(lp878
S'does'
p879
aS'not'
p880
aS'patient'
p881
aasS'social history'
p882
(lp883
(lp884
S'social'
p885
aS'history'
p886
aasS'does patient'
p887
(lp888
(lp889
S'does'
p890
aS'patient'
p891
aasS'74 died age'
p892
(lp893
(lp894
S'74'
p895
aS'age'
p896
aasS'medical father history'
p897
(lp898
(lp899
S'medical'
p900
aS'father'
p901
aS'history'
p902
aa(lp903
S'medical'
p904
aS'father'
p905
aasS'father her'
p906
(lp907
(lp908
S'father'
p909
aS'her'
p910
aasS'several about but she'
p911
(lp912
(lp913
S'several'
p914
aS'but'
p915
aasS'40 died age'
p916
(lp917
(lp918
S'40'
p919
aS'age'
p920
aasS'artery coronary'
p921
(lp922
(lp923
S'artery'
p924
aS'coronary'
p925
aasS'34 age'
p926
(lp927
(lp928
S'34'
p929
aS'age'
p930
aasS'daughters two'
p931
(lp932
(lp933
S'daughters'
p934
aS'two'
p935
aasS'diabetes type'
p936
(lp937
(lp938
S'diabetes'
p939
aS'type'
p940
aasS'reports patient'
p941
(lp942
(lp943
S'reports'
p944
aS'patient'
p945
aasS'med gen name description sample'
p946
(lp947
(lp948
S'med'
p949
aS'gen'
p950
aS'name'
p951
aa(lp952
S'med'
p953
aS'gen'
p954
aa(lp955
S'med'
p956
aS'name'
p957
aasS'significant her'
p958
(lp959
(lp960
S'significant'
p961
aS'her'
p962
aasS'sister years history'
p963
(lp964
(lp965
S'sister'
p966
aS'years'
p967
aasS'paternal had'
p968
(lp969
(lp970
S'paternal'
p971
aS'had'
p972
aasS'daughter her'
p973
(lp974
(lp975
S'daughter'
p976
aS'her'
p977
aasS'nursing home she'
p978
(lp979
(lp980
S'nursing'
p981
aS'home'
p982
aasS'artery disease coronary'
p983
(lp984
(lp985
S'artery'
p986
aS'disease'
p987
aS'coronary'
p988
aa(lp989
S'artery'
p990
aS'disease'
p991
aasS'years age'
p992
(lp993
(lp994
S'years'
p995
aS'age'
p996
aasS'states patient'
p997
(lp998
(lp999
S'states'
p1000
aS'patient'
p1001
aasS'informed consent'
p1002
(lp1003
(lp1004
S'informed'
p1005
aS'consent'
p1006
aasS'also she'
p1007
(lp1008
(lp1009
S'also'
p1010
aS'she'
p1011
aasS'admits patient history'
p1012
(lp1013
(lp1014
S'admits'
p1015
aS'patient'
p1016
aS'history'
p1017
aasS'if her'
p1018
(lp1019
(lp1020
S'if'
p1021
aS'her'
p1022
aasS'positive disease family father history'
p1023
(lp1024
(lp1025
S'positive'
p1026
aS'family'
p1027
aS'history'
p1028
aa(lp1029
S'positive'
p1030
aS'family'
p1031
aa(lp1032
S'positive'
p1033
aS'history'
p1034
aasS'also had'
p1035
(lp1036
(lp1037
S'also'
p1038
aS'had'
p1039
aasS'died father'
p1040
(lp1041
(lp1042
S'died'
p1043
aS'father'
p1044
aasS'illness this'
p1045
(lp1046
(lp1047
S'illness'
p1048
aS'this'
p1049
aasS'past medical'
p1050
(lp1051
(lp1052
S'past'
p1053
aS'medical'
p1054
aasS'brings subjective today transcription report sample medical patient'
p1055
(lp1056
(lp1057
S'brings'
p1058
aS'subjective'
p1059
aa(lp1060
S'brings'
p1061
aS'patient'
p1062
aas.