(dp0
S'brothers sisters'
p1
(lp2
(lp3
S'brothers'
p4
aS'sisters'
p5
aasS'mi died age'
p6
(lp7
(lp8
S'mi'
p9
aS'died'
p10
aS'age'
p11
aasS'vaginal delivery mother'
p12
(lp13
(lp14
S'vaginal'
p15
aS'delivery'
p16
aasS'both father'
p17
(lp18
(lp19
S'both'
p20
aS'father'
p21
aasS'mom his'
p22
(lp23
(lp24
S'mom'
p25
aS'his'
p26
aasS'admits family patient history'
p27
(lp28
(lp29
S'admits'
p30
aS'family'
p31
aS'patient'
p32
aS'history'
p33
aa(lp34
S'admits'
p35
aS'family'
p36
aS'patient'
p37
aasS'complaining pain ear'
p38
(lp39
(lp40
S'complaining'
p41
aS'pain'
p42
aS'ear'
p43
aa(lp44
S'complaining'
p45
aS'pain'
p46
aa(lp47
S'complaining'
p48
aS'ear'
p49
aasS'old years'
p50
(lp51
(lp52
S'old'
p53
aS'years'
p54
aasS'significant family'
p55
(lp56
(lp57
S'significant'
p58
aS'family'
p59
aasS'did she'
p60
(lp61
(lp62
S'did'
p63
aS'she'
p64
aasS'wife his'
p65
(lp66
(lp67
S'wife'
p68
aS'his'
p69
aasS'colon died'
p70
(lp71
(lp72
S'colon'
p73
aS'died'
p74
aasS'type had'
p75
(lp76
(lp77
S'type'
p78
aS'had'
p79
aasS'admits history'
p80
(lp81
(lp82
S'admits'
p83
aS'history'
p84
aasS'concerned about'
p85
(lp86
(lp87
S'concerned'
p88
aS'about'
p89
aasS'70 died'
p90
(lp91
(lp92
S'70'
p93
aS'died'
p94
aasS'been mother'
p95
(lp96
(lp97
S'been'
p98
aS'mother'
p99
aasS'years age'
p100
(lp101
(lp102
S'years'
p103
aS'age'
p104
aasS'currently old years'
p105
(lp106
(lp107
S'currently'
p108
aS'old'
p109
aS'years'
p110
aa(lp111
S'currently'
p112
aS'old'
p113
aa(lp114
S'currently'
p115
aS'years'
p116
aasS'paternal cancer had'
p117
(lp118
(lp119
S'paternal'
p120
aS'cancer'
p121
aS'had'
p122
aasS'sister brother'
p123
(lp124
(lp125
S'sister'
p126
aS'brother'
p127
aasS'both history'
p128
(lp129
(lp130
S'both'
p131
aS'history'
p132
aasS'grandfather maternal'
p133
(lp134
(lp135
S'grandfather'
p136
aS'maternal'
p137
aasS'one two'
p138
(lp139
(lp140
S'one'
p141
aS'two'
p142
aasS'artery disease father coronary history'
p143
(lp144
(lp145
S'artery'
p146
aS'disease'
p147
aS'father'
p148
aS'coronary'
p149
aa(lp150
S'artery'
p151
aS'disease'
p152
aS'father'
p153
aasS'side father'
p154
(lp155
(lp156
S'side'
p157
aS'father'
p158
aasS'illness history'
p159
(lp160
(lp161
S'illness'
p162
aS'history'
p163
aasS'now years'
p164
(lp165
(lp166
S'now'
p167
aS'years'
p168
aasS'illness this history'
p169
(lp170
(lp171
S'illness'
p172
aS'this'
p173
aS'history'
p174
aasS'significant family history'
p175
(lp176
(lp177
S'significant'
p178
aS'family'
p179
aS'history'
p180
aasS'plan mother'
p181
(lp182
(lp183
S'plan'
p184
aS'mother'
p185
aasS'associated history mother'
p186
(lp187
(lp188
S'associated'
p189
aS'mother'
p190
aasS'then his'
p191
(lp192
(lp193
S'then'
p194
aS'his'
p195
aasS'aunt maternal'
p196
(lp197
(lp198
S'aunt'
p199
aS'maternal'
p200
aasS'psychiatric family'
p201
(lp202
(lp203
S'psychiatric'
p204
aS'family'
p205
aasS'been father'
p206
(lp207
(lp208
S'been'
p209
aS'father'
p210
aasS'mi age'
p211
(lp212
(lp213
S'mi'
p214
aS'age'
p215
aasS'having some'
p216
(lp217
(lp218
S'having'
p219
aS'some'
p220
aasS'sample medical'
p221
(lp222
(lp223
S'sample'
p224
aS'medical'
p225
aasS'type sample'
p226
(lp227
(lp228
S'type'
p229
aS'sample'
p230
aasS'reports family history mother'
p231
(lp232
(lp233
S'reports'
p234
aS'family'
p235
aS'history'
p236
aasS'several she'
p237
(lp238
(lp239
S'several'
p240
aS'she'
p241
aasS'artery father coronary history'
p242
(lp243
(lp244
S'artery'
p245
aS'father'
p246
aS'coronary'
p247
aa(lp248
S'artery'
p249
aS'father'
p250
aasS'doing well been mother'
p251
(lp252
(lp253
S'doing'
p254
aS'well'
p255
aS'been'
p256
aa(lp257
S'doing'
p258
aS'been'
p259
aasS'59 died age father'
p260
(lp261
(lp262
S'59'
p263
aS'died'
p264
aS'age'
p265
aS'father'
p266
aa(lp267
S'59'
p268
aS'died'
p269
aS'age'
p270
aa(lp271
S'59'
p272
aS'died'
p273
aS'father'
p274
aa(lp275
S'59'
p276
aS'died'
p277
aa(lp278
S'59'
p279
aS'father'
p280
aS'age'
p281
aa(lp282
S'59'
p283
aS'father'
p284
aasS'states been mother'
p285
(lp286
(lp287
S'states'
p288
aS'been'
p289
aS'mother'
p290
aasS'fhx died'
p291
(lp292
(lp293
S'fhx'
p294
aS'died'
p295
aasS'states she'
p296
(lp297
(lp298
S'states'
p299
aS'she'
p300
aasS'died age'
p301
(lp302
(lp303
S'died'
p304
aS'age'
p305
aasS'technique obtained informed consent patient'
p306
(lp307
(lp308
S'technique'
p309
aS'obtained'
p310
aS'informed'
p311
aS'consent'
p312
aa(lp313
S'technique'
p314
aS'obtained'
p315
aS'informed'
p316
aa(lp317
S'technique'
p318
aS'obtained'
p319
aS'consent'
p320
aa(lp321
S'technique'
p322
aS'obtained'
p323
aa(lp324
S'technique'
p325
aS'informed'
p326
aS'consent'
p327
aa(lp328
S'technique'
p329
aS'informed'
p330
aa(lp331
S'technique'
p332
aS'consent'
p333
aasS'mi father'
p334
(lp335
(lp336
S'mi'
p337
aS'father'
p338
aasS'mi had'
p339
(lp340
(lp341
S'mi'
p342
aS'had'
p343
aasS'htn father fhx'
p344
(lp345
(lp346
S'htn'
p347
aS'father'
p348
aS'fhx'
p349
aa(lp350
S'htn'
p351
aS'father'
p352
aasS'patient history'
p353
(lp354
(lp355
S'patient'
p356
aS'history'
p357
aasS'79 age'
p358
(lp359
(lp360
S'79'
p361
aS'age'
p362
aasS'ages daughters two'
p363
(lp364
(lp365
S'ages'
p366
aS'daughters'
p367
aS'two'
p368
aa(lp369
S'ages'
p370
aS'daughters'
p371
aasS'mom her'
p372
(lp373
(lp374
S'mom'
p375
aS'her'
p376
aasS'subjective today transcription report sample medical patient'
p377
(lp378
(lp379
S'subjective'
p380
aS'patient'
p381
aasS'lives mother'
p382
(lp383
(lp384
S'lives'
p385
aS'mother'
p386
aasS'daughter age'
p387
(lp388
(lp389
S'daughter'
p390
aS'age'
p391
aasS'did not'
p392
(lp393
(lp394
S'did'
p395
aS'not'
p396
aasS'also mother'
p397
(lp398
(lp399
S'also'
p400
aS'mother'
p401
aasS'symptoms had'
p402
(lp403
(lp404
S'symptoms'
p405
aS'had'
p406
aasS'about his mother'
p407
(lp408
(lp409
S'about'
p410
aS'his'
p411
aS'mother'
p412
aasS'also father'
p413
(lp414
(lp415
S'also'
p416
aS'father'
p417
aasS'husband her'
p418
(lp419
(lp420
S'husband'
p421
aS'her'
p422
aasS'12 years brother who'
p423
(lp424
(lp425
S'12'
p426
aS'years'
p427
aS'who'
p428
aa(lp429
S'12'
p430
aS'years'
p431
aa(lp432
S'12'
p433
aS'brother'
p434
aS'who'
p435
aa(lp436
S'12'
p437
aS'brother'
p438
aasS'colon cancer'
p439
(lp440
(lp441
S'colon'
p442
aS'cancer'
p443
aasS'positive disease family father history'
p444
(lp445
(lp446
S'positive'
p447
aS'disease'
p448
aa(lp449
S'positive'
p450
aS'family'
p451
aS'history'
p452
aa(lp453
S'positive'
p454
aS'family'
p455
aa(lp456
S'positive'
p457
aS'history'
p458
aasS'sister who'
p459
(lp460
(lp461
S'sister'
p462
aS'who'
p463
aasS'mi fhx died'
p464
(lp465
(lp466
S'mi'
p467
aS'fhx'
p468
aS'died'
p469
aa(lp470
S'mi'
p471
aS'fhx'
p472
aasS'brother her'
p473
(lp474
(lp475
S'brother'
p476
aS'her'
p477
aasS'significant history'
p478
(lp479
(lp480
S'significant'
p481
aS'history'
p482
aasS'symptoms not patient'
p483
(lp484
(lp485
S'symptoms'
p486
aS'not'
p487
aasS'gen name description sample'
p488
(lp489
(lp490
S'gen'
p491
aS'name'
p492
aa(lp493
S'gen'
p494
aS'description'
p495
aasS'consent description patient'
p496
(lp497
(lp498
S'consent'
p499
aS'description'
p500
aasS'79 family father age history'
p501
(lp502
(lp503
S'79'
p504
aS'father'
p505
aS'age'
p506
aS'history'
p507
aa(lp508
S'79'
p509
aS'father'
p510
aS'age'
p511
aa(lp512
S'79'
p513
aS'father'
p514
aS'history'
p515
aa(lp516
S'79'
p517
aS'father'
p518
aasS'social lives history'
p519
(lp520
(lp521
S'social'
p522
aS'lives'
p523
aS'history'
p524
aa(lp525
S'social'
p526
aS'lives'
p527
aasS'both lives history'
p528
(lp529
(lp530
S'both'
p531
aS'lives'
p532
aS'history'
p533
aa(lp534
S'both'
p535
aS'lives'
p536
aasS'present illness history'
p537
(lp538
(lp539
S'present'
p540
aS'illness'
p541
aS'history'
p542
aasS'brother his'
p543
(lp544
(lp545
S'brother'
p546
aS'his'
p547
aasS'currently lives'
p548
(lp549
(lp550
S'currently'
p551
aS'lives'
p552
aasS'delivery mother'
p553
(lp554
(lp555
S'delivery'
p556
aS'mother'
p557
aasS'40 died age'
p558
(lp559
(lp560
S'40'
p561
aS'age'
p562
aasS'diabetes type'
p563
(lp564
(lp565
S'diabetes'
p566
aS'type'
p567
aasS'med gen name description sample'
p568
(lp569
(lp570
S'med'
p571
aS'gen'
p572
aS'name'
p573
aa(lp574
S'med'
p575
aS'gen'
p576
aS'description'
p577
aa(lp578
S'med'
p579
aS'gen'
p580
aa(lp581
S'med'
p582
aS'name'
p583
aa(lp584
S'med'
p585
aS'description'
p586
aasS'have father'
p587
(lp588
(lp589
S'have'
p590
aS'father'
p591
aasS'reports history mother'
p592
(lp593
(lp594
S'reports'
p595
aS'history'
p596
aasS'died father history her'
p597
(lp598
(lp599
S'died'
p600
aS'father'
p601
aS'history'
p602
aS'her'
p603
aasS'paternal had'
p604
(lp605
(lp606
S'paternal'
p607
aS'had'
p608
aasS'about she'
p609
(lp610
(lp611
S'about'
p612
aS'she'
p613
aasS'both two'
p614
(lp615
(lp616
S'both'
p617
aS'two'
p618
aasS'present history'
p619
(lp620
(lp621
S'present'
p622
aS'history'
p623
aasS'had history'
p624
(lp625
(lp626
S'had'
p627
aS'history'
p628
aasS'not who'
p629
(lp630
(lp631
S'not'
p632
aS'who'
p633
aasS'maternal who'
p634
(lp635
(lp636
S'maternal'
p637
aS'who'
p638
aasS'child her mother'
p639
(lp640
(lp641
S'child'
p642
aS'her'
p643
aasS'states patient'
p644
(lp645
(lp646
S'states'
p647
aS'patient'
p648
aasS'also she'
p649
(lp650
(lp651
S'also'
p652
aS'she'
p653
aasS'also patient'
p654
(lp655
(lp656
S'also'
p657
aS'patient'
p658
aasS'mi died age father'
p659
(lp660
(lp661
S'mi'
p662
aS'died'
p663
aS'age'
p664
aS'father'
p665
aasS'also had'
p666
(lp667
(lp668
S'also'
p669
aS'had'
p670
aasS'grandmother father her'
p671
(lp672
(lp673
S'grandmother'
p674
aS'father'
p675
aasS'brings subjective today transcription report sample medical patient'
p676
(lp677
(lp678
S'brings'
p679
aS'subjective'
p680
aS'report'
p681
aa(lp682
S'brings'
p683
aS'subjective'
p684
aS'patient'
p685
aa(lp686
S'brings'
p687
aS'subjective'
p688
aa(lp689
S'brings'
p690
aS'today'
p691
aS'patient'
p692
aa(lp693
S'brings'
p694
aS'today'
p695
aa(lp696
S'brings'
p697
aS'report'
p698
aa(lp699
S'brings'
p700
aS'patient'
p701
aasS'having no history'
p702
(lp703
(lp704
S'having'
p705
aS'no'
p706
aasS'ear his mother'
p707
(lp708
(lp709
S'ear'
p710
aS'mother'
p711
aasS'grandmother cancer'
p712
(lp713
(lp714
S'grandmother'
p715
aS'cancer'
p716
aasS'although his'
p717
(lp718
(lp719
S'although'
p720
aS'his'
p721
aasS'cabg had'
p722
(lp723
(lp724
S'cabg'
p725
aS'had'
p726
aasS'sister mom his'
p727
(lp728
(lp729
S'sister'
p730
aS'mom'
p731
aS'his'
p732
aa(lp733
S'sister'
p734
aS'mom'
p735
aasS'present illness'
p736
(lp737
(lp738
S'present'
p739
aS'illness'
p740
aasS'about but she'
p741
(lp742
(lp743
S'about'
p744
aS'but'
p745
aS'she'
p746
aa(lp747
S'about'
p748
aS'but'
p749
aasS'brothers two'
p750
(lp751
(lp752
S'brothers'
p753
aS'two'
p754
aasS'reports family'
p755
(lp756
(lp757
S'reports'
p758
aS'family'
p759
aasS'one sister'
p760
(lp761
(lp762
S'one'
p763
aS'sister'
p764
aasS'grandmother mother'
p765
(lp766
(lp767
S'grandmother'
p768
aS'mother'
p769
aasS'her mother'
p770
(lp771
(lp772
S'her'
p773
aS'mother'
p774
aasS'32 cancer'
p775
(lp776
(lp777
S'32'
p778
aS'cancer'
p779
aasS'brought mother'
p780
(lp781
(lp782
S'brought'
p783
aS'mother'
p784
aasS'healthy mother'
p785
(lp786
(lp787
S'healthy'
p788
aS'mother'
p789
aasS'years who'
p790
(lp791
(lp792
S'years'
p793
aS'who'
p794
aasS'9 age'
p795
(lp796
(lp797
S'9'
p798
aS'age'
p799
aasS'transcription report sample medical'
p800
(lp801
(lp802
S'transcription'
p803
aS'report'
p804
aS'sample'
p805
aS'medical'
p806
aa(lp807
S'transcription'
p808
aS'report'
p809
aS'sample'
p810
aa(lp811
S'transcription'
p812
aS'report'
p813
aS'medical'
p814
aa(lp815
S'transcription'
p816
aS'report'
p817
aa(lp818
S'transcription'
p819
aS'sample'
p820
aS'medical'
p821
aa(lp822
S'transcription'
p823
aS'sample'
p824
aa(lp825
S'transcription'
p826
aS'medical'
p827
aasS'sons she'
p828
(lp829
(lp830
S'sons'
p831
aS'she'
p832
aasS'home when'
p833
(lp834
(lp835
S'home'
p836
aS'when'
p837
aasS'report sample medical'
p838
(lp839
(lp840
S'report'
p841
aS'sample'
p842
aS'medical'
p843
aa(lp844
S'report'
p845
aS'sample'
p846
aasS'artery brother coronary'
p847
(lp848
(lp849
S'artery'
p850
aS'brother'
p851
aS'coronary'
p852
aa(lp853
S'artery'
p854
aS'brother'
p855
aasS'heart age'
p856
(lp857
(lp858
S'heart'
p859
aS'age'
p860
aasS'fhx died father'
p861
(lp862
(lp863
S'fhx'
p864
aS'died'
p865
aS'father'
p866
aasS'kidney failure'
p867
(lp868
(lp869
S'kidney'
p870
aS'failure'
p871
aasS'father his'
p872
(lp873
(lp874
S'father'
p875
aS'his'
p876
aasS'healthy age'
p877
(lp878
(lp879
S'healthy'
p880
aS'age'
p881
aasS'problems there'
p882
(lp883
(lp884
S'problems'
p885
aS'there'
p886
aasS'ho htn fhx'
p887
(lp888
(lp889
S'ho'
p890
aS'htn'
p891
aasS'admits patient'
p892
(lp893
(lp894
S'admits'
p895
aS'patient'
p896
aasS'died mother'
p897
(lp898
(lp899
S'died'
p900
aS'mother'
p901
aasS'coronary mother'
p902
(lp903
(lp904
S'coronary'
p905
aS'mother'
p906
aasS'one brother'
p907
(lp908
(lp909
S'one'
p910
aS'brother'
p911
aasS'died history her'
p912
(lp913
(lp914
S'died'
p915
aS'history'
p916
aS'her'
p917
aasS'does not'
p918
(lp919
(lp920
S'does'
p921
aS'not'
p922
aasS'asthma healthy'
p923
(lp924
(lp925
S'asthma'
p926
aS'healthy'
p927
aasS'general name type description sample'
p928
(lp929
(lp930
S'general'
p931
aS'name'
p932
aS'type'
p933
aa(lp934
S'general'
p935
aS'name'
p936
aa(lp937
S'general'
p938
aS'type'
p939
aS'sample'
p940
aa(lp941
S'general'
p942
aS'type'
p943
aa(lp944
S'general'
p945
aS'sample'
p946
aasS'taking medications his'
p947
(lp948
(lp949
S'taking'
p950
aS'his'
p951
aasS'hypertension his'
p952
(lp953
(lp954
S'hypertension'
p955
aS'his'
p956
aasS'medication father his'
p957
(lp958
(lp959
S'medication'
p960
aS'father'
p961
aS'his'
p962
aa(lp963
S'medication'
p964
aS'father'
p965
aasS'associated maternal family patient history'
p966
(lp967
(lp968
S'associated'
p969
aS'maternal'
p970
aasS'grandmother disease'
p971
(lp972
(lp973
S'grandmother'
p974
aS'disease'
p975
aasS'ca died father'
p976
(lp977
(lp978
S'ca'
p979
aS'died'
p980
aS'father'
p981
aa(lp982
S'ca'
p983
aS'died'
p984
aa(lp985
S'ca'
p986
aS'father'
p987
aasS'family history'
p988
(lp989
(lp990
S'family'
p991
aS'history'
p992
aasS'2 had'
p993
(lp994
(lp995
S'2'
p996
aS'had'
p997
aasS'lives his mother'
p998
(lp999
(lp1000
S'lives'
p1001
aS'his'
p1002
aS'mother'
p1003
aasS'mi died father'
p1004
(lp1005
(lp1006
S'mi'
p1007
aS'died'
p1008
aS'father'
p1009
aasS'lung history'
p1010
(lp1011
(lp1012
S'lung'
p1013
aS'history'
p1014
aasS'so she'
p1015
(lp1016
(lp1017
S'so'
p1018
aS'she'
p1019
aasS'when about'
p1020
(lp1021
(lp1022
S'when'
p1023
aS'about'
p1024
aasS'here her'
p1025
(lp1026
(lp1027
S'here'
p1028
aS'her'
p1029
aasS'reports patient'
p1030
(lp1031
(lp1032
S'reports'
p1033
aS'patient'
p1034
aasS'medical had'
p1035
(lp1036
(lp1037
S'medical'
p1038
aS'had'
p1039
aasS'female who'
p1040
(lp1041
(lp1042
S'female'
p1043
aS'who'
p1044
aasS'mi died'
p1045
(lp1046
(lp1047
S'mi'
p1048
aS'died'
p1049
aasS'infarction myocardial died'
p1050
(lp1051
(lp1052
S'infarction'
p1053
aS'myocardial'
p1054
aasS'sons two'
p1055
(lp1056
(lp1057
S'sons'
p1058
aS'two'
p1059
aasS'brother she'
p1060
(lp1061
(lp1062
S'brother'
p1063
aS'she'
p1064
aasS'his mother'
p1065
(lp1066
(lp1067
S'his'
p1068
aS'mother'
p1069
aasS'male white his'
p1070
(lp1071
(lp1072
S'male'
p1073
aS'white'
p1074
aS'his'
p1075
aasS'lives patient'
p1076
(lp1077
(lp1078
S'lives'
p1079
aS'patient'
p1080
aasS'mi age father'
p1081
(lp1082
(lp1083
S'mi'
p1084
aS'age'
p1085
aS'father'
p1086
aasS'died her mother'
p1087
(lp1088
(lp1089
S'died'
p1090
aS'her'
p1091
aS'mother'
p1092
aasS'ages years'
p1093
(lp1094
(lp1095
S'ages'
p1096
aS'years'
p1097
aasS'next day'
p1098
(lp1099
(lp1100
S'next'
p1101
aS'day'
p1102
aasS'no or'
p1103
(lp1104
(lp1105
S'no'
p1106
aS'or'
p1107
aasS'who mother'
p1108
(lp1109
(lp1110
S'who'
p1111
aS'mother'
p1112
aasS'chart mother'
p1113
(lp1114
(lp1115
S'chart'
p1116
aS'mother'
p1117
aasS'congestive failure heart died'
p1118
(lp1119
(lp1120
S'congestive'
p1121
aS'failure'
p1122
aS'heart'
p1123
aa(lp1124
S'congestive'
p1125
aS'failure'
p1126
aa(lp1127
S'congestive'
p1128
aS'heart'
p1129
aasS'son his'
p1130
(lp1131
(lp1132
S'son'
p1133
aS'his'
p1134
aasS'fhx father'
p1135
(lp1136
(lp1137
S'fhx'
p1138
aS'father'
p1139
aasS'stroke died'
p1140
(lp1141
(lp1142
S'stroke'
p1143
aS'died'
p1144
aasS'ages two'
p1145
(lp1146
(lp1147
S'ages'
p1148
aS'two'
p1149
aasS'siblings two brother age'
p1150
(lp1151
(lp1152
S'siblings'
p1153
aS'two'
p1154
aS'brother'
p1155
aS'age'
p1156
aa(lp1157
S'siblings'
p1158
aS'two'
p1159
aS'brother'
p1160
aa(lp1161
S'siblings'
p1162
aS'two'
p1163
aS'age'
p1164
aa(lp1165
S'siblings'
p1166
aS'two'
p1167
aasS'social history'
p1168
(lp1169
(lp1170
S'social'
p1171
aS'history'
p1172
aasS'74 died age'
p1173
(lp1174
(lp1175
S'74'
p1176
aS'age'
p1177
aasS'medical father history'
p1178
(lp1179
(lp1180
S'medical'
p1181
aS'father'
p1182
aS'history'
p1183
aa(lp1184
S'medical'
p1185
aS'father'
p1186
aasS'grandfather patient'
p1187
(lp1188
(lp1189
S'grandfather'
p1190
aS'patient'
p1191
aasS'several about but she'
p1192
(lp1193
(lp1194
S'several'
p1195
aS'but'
p1196
aS'she'
p1197
aa(lp1198
S'several'
p1199
aS'but'
p1200
aasS'artery coronary'
p1201
(lp1202
(lp1203
S'artery'
p1204
aS'coronary'
p1205
aasS'if her'
p1206
(lp1207
(lp1208
S'if'
p1209
aS'her'
p1210
aasS'since been'
p1211
(lp1212
(lp1213
S'since'
p1214
aS'been'
p1215
aasS'side family father'
p1216
(lp1217
(lp1218
S'side'
p1219
aS'family'
p1220
aS'father'
p1221
aasS'reports been'
p1222
(lp1223
(lp1224
S'reports'
p1225
aS'been'
p1226
aasS'per mother'
p1227
(lp1228
(lp1229
S'per'
p1230
aS'mother'
p1231
aasS'sister brother age'
p1232
(lp1233
(lp1234
S'sister'
p1235
aS'brother'
p1236
aS'age'
p1237
aasS'present illness this history'
p1238
(lp1239
(lp1240
S'present'
p1241
aS'illness'
p1242
aS'this'
p1243
aS'history'
p1244
aasS'informed consent'
p1245
(lp1246
(lp1247
S'informed'
p1248
aS'consent'
p1249
aasS'white this his mother'
p1250
(lp1251
(lp1252
S'white'
p1253
aS'this'
p1254
aasS'past medical'
p1255
(lp1256
(lp1257
S'past'
p1258
aS'medical'
p1259
aasS'medical family history'
p1260
(lp1261
(lp1262
S'medical'
p1263
aS'family'
p1264
aS'history'
p1265
aa(lp1266
S'medical'
p1267
aS'family'
p1268
aasS'59 age'
p1269
(lp1270
(lp1271
S'59'
p1272
aS'age'
p1273
aasS'well who mother'
p1274
(lp1275
(lp1276
S'well'
p1277
aS'who'
p1278
aasS'two she'
p1279
(lp1280
(lp1281
S'two'
p1282
aS'she'
p1283
aasS'tumor brain brother'
p1284
(lp1285
(lp1286
S'tumor'
p1287
aS'brain'
p1288
aasS'70 age'
p1289
(lp1290
(lp1291
S'70'
p1292
aS'age'
p1293
aasS'had father'
p1294
(lp1295
(lp1296
S'had'
p1297
aS'father'
p1298
aasS'abuse alcohol'
p1299
(lp1300
(lp1301
S'abuse'
p1302
aS'alcohol'
p1303
aasS'died who'
p1304
(lp1305
(lp1306
S'died'
p1307
aS'who'
p1308
aasS'present illness this'
p1309
(lp1310
(lp1311
S'present'
p1312
aS'illness'
p1313
aS'this'
p1314
aasS'artery disease brother coronary'
p1315
(lp1316
(lp1317
S'artery'
p1318
aS'disease'
p1319
aS'brother'
p1320
aS'coronary'
p1321
aa(lp1322
S'artery'
p1323
aS'disease'
p1324
aS'brother'
p1325
aasS'many had'
p1326
(lp1327
(lp1328
S'many'
p1329
aS'had'
p1330
aasS'disease have'
p1331
(lp1332
(lp1333
S'disease'
p1334
aS'have'
p1335
aasS'mi died mother'
p1336
(lp1337
(lp1338
S'mi'
p1339
aS'died'
p1340
aS'mother'
p1341
aasS'heart disease'
p1342
(lp1343
(lp1344
S'heart'
p1345
aS'disease'
p1346
aasS'medicine general'
p1347
(lp1348
(lp1349
S'medicine'
p1350
aS'general'
p1351
aasS'illness patient history'
p1352
(lp1353
(lp1354
S'illness'
p1355
aS'patient'
p1356
aasS'son her'
p1357
(lp1358
(lp1359
S'son'
p1360
aS'her'
p1361
aasS'no there'
p1362
(lp1363
(lp1364
S'no'
p1365
aS'there'
p1366
aasS'wellchild check mother'
p1367
(lp1368
(lp1369
S'wellchild'
p1370
aS'check'
p1371
aS'mother'
p1372
aa(lp1373
S'wellchild'
p1374
aS'check'
p1375
aa(lp1376
S'wellchild'
p1377
aS'mother'
p1378
aasS'pregnancy mother'
p1379
(lp1380
(lp1381
S'pregnancy'
p1382
aS'mother'
p1383
aasS'well been mother'
p1384
(lp1385
(lp1386
S'well'
p1387
aS'been'
p1388
aasS'psychiatric patient'
p1389
(lp1390
(lp1391
S'psychiatric'
p1392
aS'patient'
p1393
aasS'two brother age'
p1394
(lp1395
(lp1396
S'two'
p1397
aS'brother'
p1398
aS'age'
p1399
aa(lp1400
S'two'
p1401
aS'age'
p1402
aasS'asthma his'
p1403
(lp1404
(lp1405
S'asthma'
p1406
aS'his'
p1407
aasS'here his mother'
p1408
(lp1409
(lp1410
S'here'
p1411
aS'his'
p1412
aS'mother'
p1413
aasS'paternal grandmother'
p1414
(lp1415
(lp1416
S'paternal'
p1417
aS'grandmother'
p1418
aasS'depression hypertension'
p1419
(lp1420
(lp1421
S'depression'
p1422
aS'hypertension'
p1423
aasS'very well'
p1424
(lp1425
(lp1426
S'very'
p1427
aS'well'
p1428
aasS'died family history mother'
p1429
(lp1430
(lp1431
S'died'
p1432
aS'family'
p1433
aS'history'
p1434
aS'mother'
p1435
aasS'maternal her'
p1436
(lp1437
(lp1438
S'maternal'
p1439
aS'her'
p1440
aasS'renal father'
p1441
(lp1442
(lp1443
S'renal'
p1444
aS'father'
p1445
aasS'brother who'
p1446
(lp1447
(lp1448
S'brother'
p1449
aS'who'
p1450
aasS'technique description obtained informed consent patient'
p1451
(lp1452
(lp1453
S'technique'
p1454
aS'description'
p1455
aS'informed'
p1456
aS'consent'
p1457
aa(lp1458
S'technique'
p1459
aS'description'
p1460
aS'informed'
p1461
aa(lp1462
S'technique'
p1463
aS'description'
p1464
aS'consent'
p1465
aa(lp1466
S'technique'
p1467
aS'description'
p1468
aasS'dm mother'
p1469
(lp1470
(lp1471
S'dm'
p1472
aS'mother'
p1473
aasS'stroke hypertension father'
p1474
(lp1475
(lp1476
S'stroke'
p1477
aS'hypertension'
p1478
aasS'associated grandmother family history'
p1479
(lp1480
(lp1481
S'associated'
p1482
aS'grandmother'
p1483
aasS'today patient'
p1484
(lp1485
(lp1486
S'today'
p1487
aS'patient'
p1488
aasS'depression hypertension mother'
p1489
(lp1490
(lp1491
S'depression'
p1492
aS'hypertension'
p1493
aS'mother'
p1494
aasS'cancer had'
p1495
(lp1496
(lp1497
S'cancer'
p1498
aS'had'
p1499
aasS'because there'
p1500
(lp1501
(lp1502
S'because'
p1503
aS'there'
p1504
aasS'male white'
p1505
(lp1506
(lp1507
S'male'
p1508
aS'white'
p1509
aasS'obtained informed consent'
p1510
(lp1511
(lp1512
S'obtained'
p1513
aS'informed'
p1514
aS'consent'
p1515
aa(lp1516
S'obtained'
p1517
aS'informed'
p1518
aa(lp1519
S'obtained'
p1520
aS'consent'
p1521
aasS'died brother'
p1522
(lp1523
(lp1524
S'died'
p1525
aS'brother'
p1526
aasS'breast cancer sister age'
p1527
(lp1528
(lp1529
S'breast'
p1530
aS'cancer'
p1531
aS'sister'
p1532
aasS'office mother his'
p1533
(lp1534
(lp1535
S'office'
p1536
aS'mother'
p1537
aS'his'
p1538
aa(lp1539
S'office'
p1540
aS'mother'
p1541
aasS'old age'
p1542
(lp1543
(lp1544
S'old'
p1545
aS'age'
p1546
aasS'brothers sisters no'
p1547
(lp1548
(lp1549
S'brothers'
p1550
aS'sisters'
p1551
aS'no'
p1552
aa(lp1553
S'brothers'
p1554
aS'no'
p1555
aasS'had patient mother'
p1556
(lp1557
(lp1558
S'had'
p1559
aS'patient'
p1560
aS'mother'
p1561
aasS'subjective transcription report sample medical'
p1562
(lp1563
(lp1564
S'subjective'
p1565
aS'transcription'
p1566
aS'report'
p1567
aS'sample'
p1568
aS'medical'
p1569
aa(lp1570
S'subjective'
p1571
aS'transcription'
p1572
aS'report'
p1573
aS'sample'
p1574
aa(lp1575
S'subjective'
p1576
aS'transcription'
p1577
aS'report'
p1578
aS'medical'
p1579
aa(lp1580
S'subjective'
p1581
aS'transcription'
p1582
aS'report'
p1583
aa(lp1584
S'subjective'
p1585
aS'transcription'
p1586
aS'sample'
p1587
aS'medical'
p1588
aa(lp1589
S'subjective'
p1590
aS'transcription'
p1591
aS'sample'
p1592
aa(lp1593
S'subjective'
p1594
aS'transcription'
p1595
aS'medical'
p1596
aa(lp1597
S'subjective'
p1598
aS'transcription'
p1599
aa(lp1600
S'subjective'
p1601
aS'report'
p1602
aS'sample'
p1603
aS'medical'
p1604
aa(lp1605
S'subjective'
p1606
aS'report'
p1607
aS'sample'
p1608
aa(lp1609
S'subjective'
p1610
aS'report'
p1611
aS'medical'
p1612
aa(lp1613
S'subjective'
p1614
aS'report'
p1615
aa(lp1616
S'subjective'
p1617
aS'sample'
p1618
aS'medical'
p1619
aa(lp1620
S'subjective'
p1621
aS'sample'
p1622
aa(lp1623
S'subjective'
p1624
aS'medical'
p1625
aasS'mom patient'
p1626
(lp1627
(lp1628
S'mom'
p1629
aS'patient'
p1630
aasS'medical history'
p1631
(lp1632
(lp1633
S'medical'
p1634
aS'history'
p1635
aasS'obtained patient informed consent'
p1636
(lp1637
(lp1638
S'obtained'
p1639
aS'patient'
p1640
aasS'states her'
p1641
(lp1642
(lp1643
S'states'
p1644
aS'her'
p1645
aasS'present this'
p1646
(lp1647
(lp1648
S'present'
p1649
aS'this'
p1650
aasS'both father mother'
p1651
(lp1652
(lp1653
S'both'
p1654
aS'father'
p1655
aS'mother'
p1656
aasS'siblings age brother'
p1657
(lp1658
(lp1659
S'siblings'
p1660
aS'age'
p1661
aS'brother'
p1662
aa(lp1663
S'siblings'
p1664
aS'age'
p1665
aasS'reports mother'
p1666
(lp1667
(lp1668
S'reports'
p1669
aS'mother'
p1670
aasS'lives his'
p1671
(lp1672
(lp1673
S'lives'
p1674
aS'his'
p1675
aasS'other but'
p1676
(lp1677
(lp1678
S'other'
p1679
aS'but'
p1680
aasS't home'
p1681
(lp1682
(lp1683
S't'
p1684
aS'home'
p1685
aasS'does not patient'
p1686
(lp1687
(lp1688
S'does'
p1689
aS'not'
p1690
aS'patient'
p1691
aasS'healthy who'
p1692
(lp1693
(lp1694
S'healthy'
p1695
aS'who'
p1696
aasS'mi mother'
p1697
(lp1698
(lp1699
S'mi'
p1700
aS'mother'
p1701
aasS'died family father history her'
p1702
(lp1703
(lp1704
S'died'
p1705
aS'family'
p1706
aS'father'
p1707
aS'history'
p1708
aS'her'
p1709
aasS'psychiatric history'
p1710
(lp1711
(lp1712
S'psychiatric'
p1713
aS'history'
p1714
aasS'died family history her'
p1715
(lp1716
(lp1717
S'died'
p1718
aS'family'
p1719
aS'history'
p1720
aS'her'
p1721
aasS'coronary disease brother'
p1722
(lp1723
(lp1724
S'coronary'
p1725
aS'disease'
p1726
aS'brother'
p1727
aasS'good who'
p1728
(lp1729
(lp1730
S'good'
p1731
aS'who'
p1732
aasS'coronary father history'
p1733
(lp1734
(lp1735
S'coronary'
p1736
aS'father'
p1737
aasS'other no'
p1738
(lp1739
(lp1740
S'other'
p1741
aS'no'
p1742
aasS'dm age mother'
p1743
(lp1744
(lp1745
S'dm'
p1746
aS'age'
p1747
aasS'good health'
p1748
(lp1749
(lp1750
S'good'
p1751
aS'health'
p1752
aasS'family patient'
p1753
(lp1754
(lp1755
S'family'
p1756
aS'patient'
p1757
aasS'social patient history'
p1758
(lp1759
(lp1760
S'social'
p1761
aS'patient'
p1762
aS'history'
p1763
aa(lp1764
S'social'
p1765
aS'patient'
p1766
aasS'coronary disease'
p1767
(lp1768
(lp1769
S'coronary'
p1770
aS'disease'
p1771
aasS'maternal mother'
p1772
(lp1773
(lp1774
S'maternal'
p1775
aS'mother'
p1776
aasS'maternal grandmother'
p1777
(lp1778
(lp1779
S'maternal'
p1780
aS'grandmother'
p1781
aasS'white patient history'
p1782
(lp1783
(lp1784
S'white'
p1785
aS'patient'
p1786
aasS'about his'
p1787
(lp1788
(lp1789
S'about'
p1790
aS'his'
p1791
aasS'died father her'
p1792
(lp1793
(lp1794
S'died'
p1795
aS'father'
p1796
aS'her'
p1797
aasS'grandmother died'
p1798
(lp1799
(lp1800
S'grandmother'
p1801
aS'died'
p1802
aasS'coronary disease father history'
p1803
(lp1804
(lp1805
S'coronary'
p1806
aS'disease'
p1807
aS'father'
p1808
aasS'daughters two'
p1809
(lp1810
(lp1811
S'daughters'
p1812
aS'two'
p1813
aasS'diabetes father'
p1814
(lp1815
(lp1816
S'diabetes'
p1817
aS'father'
p1818
aasS'lives history'
p1819
(lp1820
(lp1821
S'lives'
p1822
aS'history'
p1823
aasS'significant her'
p1824
(lp1825
(lp1826
S'significant'
p1827
aS'her'
p1828
aasS'also history'
p1829
(lp1830
(lp1831
S'also'
p1832
aS'history'
p1833
aasS'artery disease coronary'
p1834
(lp1835
(lp1836
S'artery'
p1837
aS'disease'
p1838
aS'coronary'
p1839
aa(lp1840
S'artery'
p1841
aS'disease'
p1842
aasS'lives patient his'
p1843
(lp1844
(lp1845
S'lives'
p1846
aS'patient'
p1847
aS'his'
p1848
aasS'breast sister'
p1849
(lp1850
(lp1851
S'breast'
p1852
aS'sister'
p1853
aasS'medical age family history'
p1854
(lp1855
(lp1856
S'medical'
p1857
aS'age'
p1858
aS'family'
p1859
aS'history'
p1860
aa(lp1861
S'medical'
p1862
aS'age'
p1863
aS'family'
p1864
aa(lp1865
S'medical'
p1866
aS'age'
p1867
aS'history'
p1868
aa(lp1869
S'medical'
p1870
aS'age'
p1871
aasS'colon family'
p1872
(lp1873
(lp1874
S'colon'
p1875
aS'family'
p1876
aasS'being after mother'
p1877
(lp1878
(lp1879
S'being'
p1880
aS'after'
p1881
aasS'illness this'
p1882
(lp1883
(lp1884
S'illness'
p1885
aS'this'
p1886
aasS'male his'
p1887
(lp1888
(lp1889
S'male'
p1890
aS'his'
p1891
aasS'doing well'
p1892
(lp1893
(lp1894
S'doing'
p1895
aS'well'
p1896
aasS'living she'
p1897
(lp1898
(lp1899
S'living'
p1900
aS'she'
p1901
aasS'depression mother'
p1902
(lp1903
(lp1904
S'depression'
p1905
aS'mother'
p1906
aasS'similar symptoms'
p1907
(lp1908
(lp1909
S'similar'
p1910
aS'symptoms'
p1911
aasS'informed description consent patient'
p1912
(lp1913
(lp1914
S'informed'
p1915
aS'description'
p1916
aS'consent'
p1917
aa(lp1918
S'informed'
p1919
aS'description'
p1920
aasS'here his'
p1921
(lp1922
(lp1923
S'here'
p1924
aS'his'
p1925
aasS'this history'
p1926
(lp1927
(lp1928
S'this'
p1929
aS'history'
p1930
aasS'been had she her'
p1931
(lp1932
(lp1933
S'been'
p1934
aS'had'
p1935
aS'her'
p1936
aasS'died family history'
p1937
(lp1938
(lp1939
S'died'
p1940
aS'family'
p1941
aS'history'
p1942
aasS'unknown father'
p1943
(lp1944
(lp1945
S'unknown'
p1946
aS'father'
p1947
aasS'does patient'
p1948
(lp1949
(lp1950
S'does'
p1951
aS'patient'
p1952
aasS'stroke had'
p1953
(lp1954
(lp1955
S'stroke'
p1956
aS'had'
p1957
aasS'today his'
p1958
(lp1959
(lp1960
S'today'
p1961
aS'his'
p1962
aasS'80 age'
p1963
(lp1964
(lp1965
S'80'
p1966
aS'age'
p1967
aasS'type father'
p1968
(lp1969
(lp1970
S'type'
p1971
aS'father'
p1972
aasS'here mother'
p1973
(lp1974
(lp1975
S'here'
p1976
aS'mother'
p1977
aasS'died her'
p1978
(lp1979
(lp1980
S'died'
p1981
aS'her'
p1982
aasS'also sister'
p1983
(lp1984
(lp1985
S'also'
p1986
aS'sister'
p1987
aasS'deceased father'
p1988
(lp1989
(lp1990
S'deceased'
p1991
aS'father'
p1992
aasS'alive old'
p1993
(lp1994
(lp1995
S'alive'
p1996
aS'old'
p1997
aasS'upper been not had'
p1998
(lp1999
(lp2000
S'upper'
p2001
aS'not'
p2002
aS'had'
p2003
aa(lp2004
S'upper'
p2005
aS'not'
p2006
aa(lp2007
S'upper'
p2008
aS'had'
p2009
aasS'social she history'
p2010
(lp2011
(lp2012
S'social'
p2013
aS'she'
p2014
aS'history'
p2015
aa(lp2016
S'social'
p2017
aS'she'
p2018
aasS'sisters two'
p2019
(lp2020
(lp2021
S'sisters'
p2022
aS'two'
p2023
aasS'admits family history'
p2024
(lp2025
(lp2026
S'admits'
p2027
aS'family'
p2028
aS'history'
p2029
aa(lp2030
S'admits'
p2031
aS'family'
p2032
aasS'breast age'
p2033
(lp2034
(lp2035
S'breast'
p2036
aS'age'
p2037
aasS'brothers one'
p2038
(lp2039
(lp2040
S'brothers'
p2041
aS'one'
p2042
aasS'alzheimer grandmother disease'
p2043
(lp2044
(lp2045
S'alzheimer'
p2046
aS'disease'
p2047
aasS'pain ear'
p2048
(lp2049
(lp2050
S'pain'
p2051
aS'ear'
p2052
aasS'pain ear mom'
p2053
(lp2054
(lp2055
S'pain'
p2056
aS'ear'
p2057
aS'mom'
p2058
aa(lp2059
S'pain'
p2060
aS'mom'
p2061
aasS'79 died age'
p2062
(lp2063
(lp2064
S'79'
p2065
aS'died'
p2066
aS'age'
p2067
aa(lp2068
S'79'
p2069
aS'died'
p2070
aasS'32 age'
p2071
(lp2072
(lp2073
S'32'
p2074
aS'age'
p2075
aasS'family father history her'
p2076
(lp2077
(lp2078
S'family'
p2079
aS'father'
p2080
aS'history'
p2081
aS'her'
p2082
aasS'daughter his'
p2083
(lp2084
(lp2085
S'daughter'
p2086
aS'his'
p2087
aasS'34 age'
p2088
(lp2089
(lp2090
S'34'
p2091
aS'age'
p2092
aasS'alive mother'
p2093
(lp2094
(lp2095
S'alive'
p2096
aS'mother'
p2097
aasS'complaining mother'
p2098
(lp2099
(lp2100
S'complaining'
p2101
aS'mother'
p2102
aasS'states mother'
p2103
(lp2104
(lp2105
S'states'
p2106
aS'mother'
p2107
aasS'medical family father history'
p2108
(lp2109
(lp2110
S'medical'
p2111
aS'family'
p2112
aS'father'
p2113
aS'history'
p2114
aa(lp2115
S'medical'
p2116
aS'family'
p2117
aS'father'
p2118
aasS'breast two cancer'
p2119
(lp2120
(lp2121
S'breast'
p2122
aS'two'
p2123
aS'cancer'
p2124
aa(lp2125
S'breast'
p2126
aS'two'
p2127
aasS'medical family patient history'
p2128
(lp2129
(lp2130
S'medical'
p2131
aS'family'
p2132
aS'patient'
p2133
aS'history'
p2134
aa(lp2135
S'medical'
p2136
aS'family'
p2137
aS'patient'
p2138
aasS'have she'
p2139
(lp2140
(lp2141
S'have'
p2142
aS'she'
p2143
aasS'sister his'
p2144
(lp2145
(lp2146
S'sister'
p2147
aS'his'
p2148
aasS'ago years'
p2149
(lp2150
(lp2151
S'ago'
p2152
aS'years'
p2153
aasS'concerns mother'
p2154
(lp2155
(lp2156
S'concerns'
p2157
aS'mother'
p2158
aasS'failure heart died'
p2159
(lp2160
(lp2161
S'failure'
p2162
aS'heart'
p2163
aasS'present this history'
p2164
(lp2165
(lp2166
S'present'
p2167
aS'this'
p2168
aS'history'
p2169
aasS'one brother she'
p2170
(lp2171
(lp2172
S'one'
p2173
aS'brother'
p2174
aS'she'
p2175
aasS'breast cancer'
p2176
(lp2177
(lp2178
S'breast'
p2179
aS'cancer'
p2180
aasS'family patient history'
p2181
(lp2182
(lp2183
S'family'
p2184
aS'patient'
p2185
aS'history'
p2186
aasS'two had'
p2187
(lp2188
(lp2189
S'two'
p2190
aS'had'
p2191
aasS'died father'
p2192
(lp2193
(lp2194
S'died'
p2195
aS'father'
p2196
aasS'present illness patient history'
p2197
(lp2198
(lp2199
S'present'
p2200
aS'illness'
p2201
aS'patient'
p2202
aasS'lives patient history'
p2203
(lp2204
(lp2205
S'lives'
p2206
aS'patient'
p2207
aS'history'
p2208
aasS'sisters one'
p2209
(lp2210
(lp2211
S'sisters'
p2212
aS'one'
p2213
aasS'name type description sample'
p2214
(lp2215
(lp2216
S'name'
p2217
aS'type'
p2218
aasS'check mother'
p2219
(lp2220
(lp2221
S'check'
p2222
aS'mother'
p2223
aasS'been daughter she her'
p2224
(lp2225
(lp2226
S'been'
p2227
aS'daughter'
p2228
aS'her'
p2229
aa(lp2230
S'been'
p2231
aS'daughter'
p2232
aasS'maternal her mother'
p2233
(lp2234
(lp2235
S'maternal'
p2236
aS'her'
p2237
aS'mother'
p2238
aasS'diabetes had'
p2239
(lp2240
(lp2241
S'diabetes'
p2242
aS'had'
p2243
aasS'hypertension mother'
p2244
(lp2245
(lp2246
S'hypertension'
p2247
aS'mother'
p2248
aasS'both mother'
p2249
(lp2250
(lp2251
S'both'
p2252
aS'mother'
p2253
aasS'reports his'
p2254
(lp2255
(lp2256
S'reports'
p2257
aS'his'
p2258
aasS'one years his'
p2259
(lp2260
(lp2261
S'one'
p2262
aS'years'
p2263
aasS'prostate cancer'
p2264
(lp2265
(lp2266
S'prostate'
p2267
aS'cancer'
p2268
aasS'diagnosed cancer'
p2269
(lp2270
(lp2271
S'diagnosed'
p2272
aS'cancer'
p2273
aasS'male here his mother'
p2274
(lp2275
(lp2276
S'male'
p2277
aS'here'
p2278
aS'his'
p2279
aS'mother'
p2280
aa(lp2281
S'male'
p2282
aS'here'
p2283
aS'his'
p2284
aa(lp2285
S'male'
p2286
aS'here'
p2287
aS'mother'
p2288
aa(lp2289
S'male'
p2290
aS'here'
p2291
aasS'know she'
p2292
(lp2293
(lp2294
S'know'
p2295
aS'she'
p2296
aasS'siblings brother'
p2297
(lp2298
(lp2299
S'siblings'
p2300
aS'brother'
p2301
aasS'who father'
p2302
(lp2303
(lp2304
S'who'
p2305
aS'father'
p2306
aasS'father her'
p2307
(lp2308
(lp2309
S'father'
p2310
aS'her'
p2311
aasS'sisters no'
p2312
(lp2313
(lp2314
S'sisters'
p2315
aS'no'
p2316
aasS'problems father'
p2317
(lp2318
(lp2319
S'problems'
p2320
aS'father'
p2321
aasS'coronary brother'
p2322
(lp2323
(lp2324
S'coronary'
p2325
aS'brother'
p2326
aasS'cancer died history mother'
p2327
(lp2328
(lp2329
S'cancer'
p2330
aS'died'
p2331
aS'history'
p2332
aS'mother'
p2333
aasS'sister years history'
p2334
(lp2335
(lp2336
S'sister'
p2337
aS'years'
p2338
aasS'had father history'
p2339
(lp2340
(lp2341
S'had'
p2342
aS'father'
p2343
aS'history'
p2344
aasS'daughter her'
p2345
(lp2346
(lp2347
S'daughter'
p2348
aS'her'
p2349
aasS'nursing home she'
p2350
(lp2351
(lp2352
S'nursing'
p2353
aS'home'
p2354
aasS'drove his'
p2355
(lp2356
(lp2357
S'drove'
p2358
aS'his'
p2359
aasS'also his'
p2360
(lp2361
(lp2362
S'also'
p2363
aS'his'
p2364
aasS'grandfather had'
p2365
(lp2366
(lp2367
S'grandfather'
p2368
aS'had'
p2369
aasS'office his'
p2370
(lp2371
(lp2372
S'office'
p2373
aS'his'
p2374
aasS'admits patient history'
p2375
(lp2376
(lp2377
S'admits'
p2378
aS'patient'
p2379
aS'history'
p2380
aasS'heart who'
p2381
(lp2382
(lp2383
S'heart'
p2384
aS'who'
p2385
aasS'breast had'
p2386
(lp2387
(lp2388
S'breast'
p2389
aS'had'
p2390
aasS'report medical'
p2391
(lp2392
(lp2393
S'report'
p2394
aS'medical'
p2395
aas.