(dp0
S'brothers sisters'
p1
(lp2
(lp3
S'brothers'
p4
aS'sisters'
p5
aasS'died his'
p6
(lp7
(lp8
S'died'
p9
aS'his'
p10
aasS'mi died age'
p11
(lp12
(lp13
S'mi'
p14
aS'died'
p15
aS'age'
p16
aasS'brother age'
p17
(lp18
(lp19
S'brother'
p20
aS'age'
p21
aasS'several mother'
p22
(lp23
(lp24
S'several'
p25
aS'mother'
p26
aasS'this who'
p27
(lp28
(lp29
S'this'
p30
aS'who'
p31
aasS'vaginal delivery mother'
p32
(lp33
(lp34
S'vaginal'
p35
aS'delivery'
p36
aS'mother'
p37
aa(lp38
S'vaginal'
p39
aS'delivery'
p40
aa(lp41
S'vaginal'
p42
aS'mother'
p43
aasS'alzheimer grandmother disease'
p44
(lp45
(lp46
S'alzheimer'
p47
aS'grandmother'
p48
aS'disease'
p49
aa(lp50
S'alzheimer'
p51
aS'grandmother'
p52
aa(lp53
S'alzheimer'
p54
aS'disease'
p55
aasS'old his'
p56
(lp57
(lp58
S'old'
p59
aS'his'
p60
aasS'being after mother'
p61
(lp62
(lp63
S'being'
p64
aS'after'
p65
aasS'both father'
p66
(lp67
(lp68
S'both'
p69
aS'father'
p70
aasS'years father history'
p71
(lp72
(lp73
S'years'
p74
aS'father'
p75
aS'history'
p76
aasS'several about'
p77
(lp78
(lp79
S'several'
p80
aS'about'
p81
aasS'admits family patient history'
p82
(lp83
(lp84
S'admits'
p85
aS'family'
p86
aS'patient'
p87
aS'history'
p88
aa(lp89
S'admits'
p90
aS'family'
p91
aS'patient'
p92
aasS'any mother'
p93
(lp94
(lp95
S'any'
p96
aS'mother'
p97
aasS'complaining pain ear'
p98
(lp99
(lp100
S'complaining'
p101
aS'pain'
p102
aS'ear'
p103
aa(lp104
S'complaining'
p105
aS'pain'
p106
aa(lp107
S'complaining'
p108
aS'ear'
p109
aasS'report medical patient'
p110
(lp111
(lp112
S'report'
p113
aS'medical'
p114
aS'patient'
p115
aasS'old years'
p116
(lp117
(lp118
S'old'
p119
aS'years'
p120
aasS'artery family father coronary history'
p121
(lp122
(lp123
S'artery'
p124
aS'family'
p125
aS'father'
p126
aS'coronary'
p127
aS'history'
p128
aa(lp129
S'artery'
p130
aS'family'
p131
aS'father'
p132
aS'coronary'
p133
aa(lp134
S'artery'
p135
aS'family'
p136
aS'father'
p137
aS'history'
p138
aa(lp139
S'artery'
p140
aS'family'
p141
aS'father'
p142
aasS'one who'
p143
(lp144
(lp145
S'one'
p146
aS'who'
p147
aasS'heart father history'
p148
(lp149
(lp150
S'heart'
p151
aS'father'
p152
aS'history'
p153
aasS'white present patient illness history'
p154
(lp155
(lp156
S'white'
p157
aS'present'
p158
aS'patient'
p159
aS'illness'
p160
aS'history'
p161
aa(lp162
S'white'
p163
aS'present'
p164
aS'patient'
p165
aS'illness'
p166
aa(lp167
S'white'
p168
aS'present'
p169
aS'patient'
p170
aS'history'
p171
aa(lp172
S'white'
p173
aS'present'
p174
aS'patient'
p175
aasS'did she'
p176
(lp177
(lp178
S'did'
p179
aS'she'
p180
aasS'brain brother'
p181
(lp182
(lp183
S'brain'
p184
aS'brother'
p185
aasS'doing mother'
p186
(lp187
(lp188
S'doing'
p189
aS'mother'
p190
aasS'colon died'
p191
(lp192
(lp193
S'colon'
p194
aS'died'
p195
aasS'wife him'
p196
(lp197
(lp198
S'wife'
p199
aS'him'
p200
aasS'old years his'
p201
(lp202
(lp203
S'old'
p204
aS'years'
p205
aS'his'
p206
aasS'age her'
p207
(lp208
(lp209
S'age'
p210
aS'her'
p211
aasS'had patient'
p212
(lp213
(lp214
S'had'
p215
aS'patient'
p216
aasS'factors mother'
p217
(lp218
(lp219
S'factors'
p220
aS'mother'
p221
aasS'breast history her'
p222
(lp223
(lp224
S'breast'
p225
aS'history'
p226
aS'her'
p227
aasS'she mother'
p228
(lp229
(lp230
S'she'
p231
aS'mother'
p232
aasS'medical this mother'
p233
(lp234
(lp235
S'medical'
p236
aS'this'
p237
aasS'admits history'
p238
(lp239
(lp240
S'admits'
p241
aS'history'
p242
aasS'two father'
p243
(lp244
(lp245
S'two'
p246
aS'father'
p247
aasS'concerned about'
p248
(lp249
(lp250
S'concerned'
p251
aS'about'
p252
aasS'breast diabetes cancer'
p253
(lp254
(lp255
S'breast'
p256
aS'diabetes'
p257
aS'cancer'
p258
aa(lp259
S'breast'
p260
aS'diabetes'
p261
aasS'what not'
p262
(lp263
(lp264
S'what'
p265
aS'not'
p266
aasS'70 died'
p267
(lp268
(lp269
S'70'
p270
aS'died'
p271
aasS'dm died mother'
p272
(lp273
(lp274
S'dm'
p275
aS'died'
p276
aS'mother'
p277
aa(lp278
S'dm'
p279
aS'died'
p280
aasS'breast mother'
p281
(lp282
(lp283
S'breast'
p284
aS'mother'
p285
aasS'years age'
p286
(lp287
(lp288
S'years'
p289
aS'age'
p290
aasS'age history mother'
p291
(lp292
(lp293
S'age'
p294
aS'history'
p295
aS'mother'
p296
aasS'currently old years'
p297
(lp298
(lp299
S'currently'
p300
aS'old'
p301
aS'years'
p302
aa(lp303
S'currently'
p304
aS'old'
p305
aa(lp306
S'currently'
p307
aS'years'
p308
aasS'paternal cancer had'
p309
(lp310
(lp311
S'paternal'
p312
aS'cancer'
p313
aS'had'
p314
aasS'sister brother'
p315
(lp316
(lp317
S'sister'
p318
aS'brother'
p319
aasS'today report sample medical patient'
p320
(lp321
(lp322
S'today'
p323
aS'report'
p324
aS'patient'
p325
aa(lp326
S'today'
p327
aS'report'
p328
aasS'after his'
p329
(lp330
(lp331
S'after'
p332
aS'his'
p333
aasS'who father mother'
p334
(lp335
(lp336
S'who'
p337
aS'father'
p338
aS'mother'
p339
aasS'name type description sample'
p340
(lp341
(lp342
S'name'
p343
aS'type'
p344
aS'description'
p345
aa(lp346
S'name'
p347
aS'type'
p348
aS'sample'
p349
aa(lp350
S'name'
p351
aS'type'
p352
aasS'80 mother'
p353
(lp354
(lp355
S'80'
p356
aS'mother'
p357
aasS'did but'
p358
(lp359
(lp360
S'did'
p361
aS'but'
p362
aasS'diabetes family'
p363
(lp364
(lp365
S'diabetes'
p366
aS'family'
p367
aasS'maternal patient'
p368
(lp369
(lp370
S'maternal'
p371
aS'patient'
p372
aasS'hypertension who'
p373
(lp374
(lp375
S'hypertension'
p376
aS'who'
p377
aasS'maternal who'
p378
(lp379
(lp380
S'maternal'
p381
aS'who'
p382
aasS'father his mother'
p383
(lp384
(lp385
S'father'
p386
aS'his'
p387
aS'mother'
p388
aasS'grandfather maternal'
p389
(lp390
(lp391
S'grandfather'
p392
aS'maternal'
p393
aasS'one two'
p394
(lp395
(lp396
S'one'
p397
aS'two'
p398
aasS'artery disease father coronary history'
p399
(lp400
(lp401
S'artery'
p402
aS'disease'
p403
aS'father'
p404
aS'coronary'
p405
aS'history'
p406
aa(lp407
S'artery'
p408
aS'disease'
p409
aS'father'
p410
aS'coronary'
p411
aa(lp412
S'artery'
p413
aS'disease'
p414
aS'father'
p415
aS'history'
p416
aa(lp417
S'artery'
p418
aS'disease'
p419
aS'father'
p420
aasS'cancer died age'
p421
(lp422
(lp423
S'cancer'
p424
aS'died'
p425
aS'age'
p426
aasS'been patient'
p427
(lp428
(lp429
S'been'
p430
aS'patient'
p431
aasS'died had'
p432
(lp433
(lp434
S'died'
p435
aS'had'
p436
aasS'diabetes history mother'
p437
(lp438
(lp439
S'diabetes'
p440
aS'history'
p441
aS'mother'
p442
aasS'child mother'
p443
(lp444
(lp445
S'child'
p446
aS'mother'
p447
aasS'mom his'
p448
(lp449
(lp450
S'mom'
p451
aS'his'
p452
aasS'side father'
p453
(lp454
(lp455
S'side'
p456
aS'father'
p457
aasS'age family history'
p458
(lp459
(lp460
S'age'
p461
aS'family'
p462
aS'history'
p463
aasS'history her mother'
p464
(lp465
(lp466
S'history'
p467
aS'her'
p468
aS'mother'
p469
aasS'child history mother'
p470
(lp471
(lp472
S'child'
p473
aS'history'
p474
aasS'illness history'
p475
(lp476
(lp477
S'illness'
p478
aS'history'
p479
aasS'heart died'
p480
(lp481
(lp482
S'heart'
p483
aS'died'
p484
aasS'but history'
p485
(lp486
(lp487
S'but'
p488
aS'history'
p489
aasS'significant his'
p490
(lp491
(lp492
S'significant'
p493
aS'his'
p494
aasS'states father'
p495
(lp496
(lp497
S'states'
p498
aS'father'
p499
aasS'this his mother'
p500
(lp501
(lp502
S'this'
p503
aS'his'
p504
aS'mother'
p505
aasS'now years'
p506
(lp507
(lp508
S'now'
p509
aS'years'
p510
aasS'health his'
p511
(lp512
(lp513
S'health'
p514
aS'his'
p515
aasS'fhx age father'
p516
(lp517
(lp518
S'fhx'
p519
aS'age'
p520
aS'father'
p521
aasS'brother who'
p522
(lp523
(lp524
S'brother'
p525
aS'who'
p526
aasS'well his'
p527
(lp528
(lp529
S'well'
p530
aS'his'
p531
aasS'plan mother'
p532
(lp533
(lp534
S'plan'
p535
aS'mother'
p536
aasS'associated history mother'
p537
(lp538
(lp539
S'associated'
p540
aS'mother'
p541
aasS'cancer daughter'
p542
(lp543
(lp544
S'cancer'
p545
aS'daughter'
p546
aasS'then his'
p547
(lp548
(lp549
S'then'
p550
aS'his'
p551
aasS'been father'
p552
(lp553
(lp554
S'been'
p555
aS'father'
p556
aasS'siblings sister brother'
p557
(lp558
(lp559
S'siblings'
p560
aS'sister'
p561
aS'brother'
p562
aa(lp563
S'siblings'
p564
aS'sister'
p565
aasS'back his'
p566
(lp567
(lp568
S'back'
p569
aS'his'
p570
aasS'aunt maternal'
p571
(lp572
(lp573
S'aunt'
p574
aS'maternal'
p575
aasS'description report sample medical'
p576
(lp577
(lp578
S'description'
p579
aS'report'
p580
aS'medical'
p581
aa(lp582
S'description'
p583
aS'report'
p584
aasS'failure heart her mother died'
p585
(lp586
(lp587
S'failure'
p588
aS'heart'
p589
aS'her'
p590
aS'mother'
p591
aS'died'
p592
aa(lp593
S'failure'
p594
aS'heart'
p595
aS'her'
p596
aS'mother'
p597
aasS'old age father'
p598
(lp599
(lp600
S'old'
p601
aS'age'
p602
aS'father'
p603
aasS'ago brother'
p604
(lp605
(lp606
S'ago'
p607
aS'brother'
p608
aasS'mom her'
p609
(lp610
(lp611
S'mom'
p612
aS'her'
p613
aasS'psychiatric family'
p614
(lp615
(lp616
S'psychiatric'
p617
aS'family'
p618
aasS'died age history'
p619
(lp620
(lp621
S'died'
p622
aS'age'
p623
aS'history'
p624
aasS'age family father history'
p625
(lp626
(lp627
S'age'
p628
aS'family'
p629
aS'father'
p630
aS'history'
p631
aasS'family father his'
p632
(lp633
(lp634
S'family'
p635
aS'father'
p636
aS'his'
p637
aasS'daughter who her'
p638
(lp639
(lp640
S'daughter'
p641
aS'who'
p642
aS'her'
p643
aasS'79 history age'
p644
(lp645
(lp646
S'79'
p647
aS'history'
p648
aS'age'
p649
aa(lp650
S'79'
p651
aS'history'
p652
aasS'diabetes disease'
p653
(lp654
(lp655
S'diabetes'
p656
aS'disease'
p657
aasS'who father her'
p658
(lp659
(lp660
S'who'
p661
aS'father'
p662
aS'her'
p663
aasS'significant family'
p664
(lp665
(lp666
S'significant'
p667
aS'family'
p668
aasS'because not'
p669
(lp670
(lp671
S'because'
p672
aS'not'
p673
aasS'mi age'
p674
(lp675
(lp676
S'mi'
p677
aS'age'
p678
aasS'having some'
p679
(lp680
(lp681
S'having'
p682
aS'some'
p683
aasS'breast sister age'
p684
(lp685
(lp686
S'breast'
p687
aS'sister'
p688
aS'age'
p689
aasS'your about'
p690
(lp691
(lp692
S'your'
p693
aS'about'
p694
aasS'type sample'
p695
(lp696
(lp697
S'type'
p698
aS'sample'
p699
aasS'breast cancer daughter'
p700
(lp701
(lp702
S'breast'
p703
aS'cancer'
p704
aS'daughter'
p705
aasS'we mother'
p706
(lp707
(lp708
S'we'
p709
aS'mother'
p710
aasS'breast her'
p711
(lp712
(lp713
S'breast'
p714
aS'her'
p715
aasS'reports family history mother'
p716
(lp717
(lp718
S'reports'
p719
aS'family'
p720
aS'history'
p721
aS'mother'
p722
aa(lp723
S'reports'
p724
aS'family'
p725
aS'history'
p726
aasS'colon cancer died'
p727
(lp728
(lp729
S'colon'
p730
aS'cancer'
p731
aS'died'
p732
aasS'had father'
p733
(lp734
(lp735
S'had'
p736
aS'father'
p737
aasS'several she'
p738
(lp739
(lp740
S'several'
p741
aS'she'
p742
aasS'health mother'
p743
(lp744
(lp745
S'health'
p746
aS'mother'
p747
aasS'today mom'
p748
(lp749
(lp750
S'today'
p751
aS'mom'
p752
aasS'artery father coronary history'
p753
(lp754
(lp755
S'artery'
p756
aS'father'
p757
aS'coronary'
p758
aS'history'
p759
aa(lp760
S'artery'
p761
aS'father'
p762
aS'coronary'
p763
aa(lp764
S'artery'
p765
aS'father'
p766
aS'history'
p767
aa(lp768
S'artery'
p769
aS'father'
p770
aasS'doing well been mother'
p771
(lp772
(lp773
S'doing'
p774
aS'well'
p775
aS'been'
p776
aS'mother'
p777
aa(lp778
S'doing'
p779
aS'well'
p780
aS'been'
p781
aa(lp782
S'doing'
p783
aS'well'
p784
aS'mother'
p785
aa(lp786
S'doing'
p787
aS'been'
p788
aS'mother'
p789
aa(lp790
S'doing'
p791
aS'been'
p792
aasS'there mother'
p793
(lp794
(lp795
S'there'
p796
aS'mother'
p797
aasS'59 died age father'
p798
(lp799
(lp800
S'59'
p801
aS'died'
p802
aS'age'
p803
aS'father'
p804
aa(lp805
S'59'
p806
aS'died'
p807
aS'age'
p808
aa(lp809
S'59'
p810
aS'died'
p811
aS'father'
p812
aa(lp813
S'59'
p814
aS'died'
p815
aa(lp816
S'59'
p817
aS'father'
p818
aS'age'
p819
aa(lp820
S'59'
p821
aS'father'
p822
aasS'white patient history'
p823
(lp824
(lp825
S'white'
p826
aS'patient'
p827
aS'history'
p828
aa(lp829
S'white'
p830
aS'patient'
p831
aasS'medical family patient mother history'
p832
(lp833
(lp834
S'medical'
p835
aS'family'
p836
aS'patient'
p837
aS'mother'
p838
aS'history'
p839
aa(lp840
S'medical'
p841
aS'family'
p842
aS'patient'
p843
aS'mother'
p844
aa(lp845
S'medical'
p846
aS'family'
p847
aS'mother'
p848
aS'history'
p849
aa(lp850
S'medical'
p851
aS'family'
p852
aS'mother'
p853
aasS'fhx died'
p854
(lp855
(lp856
S'fhx'
p857
aS'died'
p858
aasS'years she'
p859
(lp860
(lp861
S'years'
p862
aS'she'
p863
aasS'disease father history'
p864
(lp865
(lp866
S'disease'
p867
aS'father'
p868
aS'history'
p869
aasS'breast had mother'
p870
(lp871
(lp872
S'breast'
p873
aS'had'
p874
aS'mother'
p875
aasS'states she'
p876
(lp877
(lp878
S'states'
p879
aS'she'
p880
aasS'depression history'
p881
(lp882
(lp883
S'depression'
p884
aS'history'
p885
aasS'but mom'
p886
(lp887
(lp888
S'but'
p889
aS'mom'
p890
aasS'who had'
p891
(lp892
(lp893
S'who'
p894
aS'had'
p895
aasS'sisters she'
p896
(lp897
(lp898
S'sisters'
p899
aS'she'
p900
aasS'wife his'
p901
(lp902
(lp903
S'wife'
p904
aS'his'
p905
aasS'technique obtained informed consent patient'
p906
(lp907
(lp908
S'technique'
p909
aS'obtained'
p910
aS'informed'
p911
aS'consent'
p912
aS'patient'
p913
aa(lp914
S'technique'
p915
aS'obtained'
p916
aS'informed'
p917
aS'consent'
p918
aa(lp919
S'technique'
p920
aS'obtained'
p921
aS'informed'
p922
aS'patient'
p923
aa(lp924
S'technique'
p925
aS'obtained'
p926
aS'informed'
p927
aa(lp928
S'technique'
p929
aS'obtained'
p930
aS'consent'
p931
aS'patient'
p932
aa(lp933
S'technique'
p934
aS'obtained'
p935
aS'consent'
p936
aa(lp937
S'technique'
p938
aS'obtained'
p939
aS'patient'
p940
aa(lp941
S'technique'
p942
aS'obtained'
p943
aa(lp944
S'technique'
p945
aS'informed'
p946
aS'consent'
p947
aS'patient'
p948
aa(lp949
S'technique'
p950
aS'informed'
p951
aS'consent'
p952
aa(lp953
S'technique'
p954
aS'informed'
p955
aS'patient'
p956
aa(lp957
S'technique'
p958
aS'informed'
p959
aa(lp960
S'technique'
p961
aS'consent'
p962
aS'patient'
p963
aa(lp964
S'technique'
p965
aS'consent'
p966
aa(lp967
S'technique'
p968
aS'patient'
p969
aasS'mi father'
p970
(lp971
(lp972
S'mi'
p973
aS'father'
p974
aasS'died history mother'
p975
(lp976
(lp977
S'died'
p978
aS'history'
p979
aS'mother'
p980
aasS'mi had'
p981
(lp982
(lp983
S'mi'
p984
aS'had'
p985
aasS'had mother'
p986
(lp987
(lp988
S'had'
p989
aS'mother'
p990
aasS'htn father fhx'
p991
(lp992
(lp993
S'htn'
p994
aS'father'
p995
aS'fhx'
p996
aa(lp997
S'htn'
p998
aS'father'
p999
aasS'here present illness this history'
p1000
(lp1001
(lp1002
S'here'
p1003
aS'present'
p1004
aS'illness'
p1005
aS'this'
p1006
aa(lp1007
S'here'
p1008
aS'present'
p1009
aS'illness'
p1010
aa(lp1011
S'here'
p1012
aS'present'
p1013
aS'this'
p1014
aa(lp1015
S'here'
p1016
aS'present'
p1017
aasS'who family'
p1018
(lp1019
(lp1020
S'who'
p1021
aS'family'
p1022
aasS'79 age'
p1023
(lp1024
(lp1025
S'79'
p1026
aS'age'
p1027
aasS'ages daughters two'
p1028
(lp1029
(lp1030
S'ages'
p1031
aS'daughters'
p1032
aS'two'
p1033
aa(lp1034
S'ages'
p1035
aS'daughters'
p1036
aasS'breast patient history mother'
p1037
(lp1038
(lp1039
S'breast'
p1040
aS'patient'
p1041
aS'history'
p1042
aasS'stroke family mother history'
p1043
(lp1044
(lp1045
S'stroke'
p1046
aS'family'
p1047
aS'mother'
p1048
aS'history'
p1049
aa(lp1050
S'stroke'
p1051
aS'family'
p1052
aS'mother'
p1053
aasS'coronary history'
p1054
(lp1055
(lp1056
S'coronary'
p1057
aS'history'
p1058
aasS'subjective today transcription report sample medical patient'
p1059
(lp1060
(lp1061
S'subjective'
p1062
aS'today'
p1063
aS'transcription'
p1064
aS'report'
p1065
aS'patient'
p1066
aa(lp1067
S'subjective'
p1068
aS'today'
p1069
aS'transcription'
p1070
aS'report'
p1071
aa(lp1072
S'subjective'
p1073
aS'today'
p1074
aS'transcription'
p1075
aS'patient'
p1076
aa(lp1077
S'subjective'
p1078
aS'today'
p1079
aS'transcription'
p1080
aa(lp1081
S'subjective'
p1082
aS'today'
p1083
aS'report'
p1084
aS'patient'
p1085
aa(lp1086
S'subjective'
p1087
aS'today'
p1088
aS'report'
p1089
aa(lp1090
S'subjective'
p1091
aS'today'
p1092
aS'patient'
p1093
aa(lp1094
S'subjective'
p1095
aS'today'
p1096
aa(lp1097
S'subjective'
p1098
aS'patient'
p1099
aS'transcription'
p1100
aS'report'
p1101
aS'medical'
p1102
aa(lp1103
S'subjective'
p1104
aS'patient'
p1105
aS'transcription'
p1106
aS'report'
p1107
aa(lp1108
S'subjective'
p1109
aS'patient'
p1110
aS'transcription'
p1111
aS'medical'
p1112
aa(lp1113
S'subjective'
p1114
aS'patient'
p1115
aS'transcription'
p1116
aa(lp1117
S'subjective'
p1118
aS'patient'
p1119
aS'report'
p1120
aS'medical'
p1121
aa(lp1122
S'subjective'
p1123
aS'patient'
p1124
aS'report'
p1125
aa(lp1126
S'subjective'
p1127
aS'patient'
p1128
aS'medical'
p1129
aa(lp1130
S'subjective'
p1131
aS'patient'
p1132
aasS'i who'
p1133
(lp1134
(lp1135
S'i'
p1136
aS'who'
p1137
aasS'lives mother'
p1138
(lp1139
(lp1140
S'lives'
p1141
aS'mother'
p1142
aasS'age father history'
p1143
(lp1144
(lp1145
S'age'
p1146
aS'father'
p1147
aS'history'
p1148
aasS'white illness patient history'
p1149
(lp1150
(lp1151
S'white'
p1152
aS'illness'
p1153
aS'patient'
p1154
aS'history'
p1155
aa(lp1156
S'white'
p1157
aS'illness'
p1158
aS'patient'
p1159
aasS'did not'
p1160
(lp1161
(lp1162
S'did'
p1163
aS'not'
p1164
aasS'both family history'
p1165
(lp1166
(lp1167
S'both'
p1168
aS'family'
p1169
aS'history'
p1170
aasS'old died age'
p1171
(lp1172
(lp1173
S'old'
p1174
aS'died'
p1175
aS'age'
p1176
aasS'white history'
p1177
(lp1178
(lp1179
S'white'
p1180
aS'history'
p1181
aasS'type family history'
p1182
(lp1183
(lp1184
S'type'
p1185
aS'family'
p1186
aS'history'
p1187
aa(lp1188
S'type'
p1189
aS'family'
p1190
aasS'description medical'
p1191
(lp1192
(lp1193
S'description'
p1194
aS'medical'
p1195
aasS'two history'
p1196
(lp1197
(lp1198
S'two'
p1199
aS'history'
p1200
aasS'symptoms had'
p1201
(lp1202
(lp1203
S'symptoms'
p1204
aS'had'
p1205
aasS'about his mother'
p1206
(lp1207
(lp1208
S'about'
p1209
aS'his'
p1210
aS'mother'
p1211
aasS'consent description mom patient'
p1212
(lp1213
(lp1214
S'consent'
p1215
aS'mom'
p1216
aS'patient'
p1217
aa(lp1218
S'consent'
p1219
aS'mom'
p1220
aasS'them his'
p1221
(lp1222
(lp1223
S'them'
p1224
aS'his'
p1225
aasS'husband her'
p1226
(lp1227
(lp1228
S'husband'
p1229
aS'her'
p1230
aasS'family her mother'
p1231
(lp1232
(lp1233
S'family'
p1234
aS'her'
p1235
aS'mother'
p1236
aasS'12 years brother who'
p1237
(lp1238
(lp1239
S'12'
p1240
aS'years'
p1241
aS'brother'
p1242
aS'who'
p1243
aa(lp1244
S'12'
p1245
aS'years'
p1246
aS'brother'
p1247
aa(lp1248
S'12'
p1249
aS'years'
p1250
aS'who'
p1251
aa(lp1252
S'12'
p1253
aS'years'
p1254
aa(lp1255
S'12'
p1256
aS'brother'
p1257
aS'who'
p1258
aa(lp1259
S'12'
p1260
aS'brother'
p1261
aasS'father mother'
p1262
(lp1263
(lp1264
S'father'
p1265
aS'mother'
p1266
aasS'check here mother'
p1267
(lp1268
(lp1269
S'check'
p1270
aS'here'
p1271
aS'mother'
p1272
aa(lp1273
S'check'
p1274
aS'here'
p1275
aasS'colon cancer'
p1276
(lp1277
(lp1278
S'colon'
p1279
aS'cancer'
p1280
aasS'positive disease family father history'
p1281
(lp1282
(lp1283
S'positive'
p1284
aS'disease'
p1285
aS'family'
p1286
aS'father'
p1287
aS'history'
p1288
aa(lp1289
S'positive'
p1290
aS'disease'
p1291
aS'family'
p1292
aS'father'
p1293
aa(lp1294
S'positive'
p1295
aS'disease'
p1296
aS'family'
p1297
aS'history'
p1298
aa(lp1299
S'positive'
p1300
aS'disease'
p1301
aS'family'
p1302
aa(lp1303
S'positive'
p1304
aS'disease'
p1305
aS'father'
p1306
aS'history'
p1307
aa(lp1308
S'positive'
p1309
aS'disease'
p1310
aS'father'
p1311
aa(lp1312
S'positive'
p1313
aS'disease'
p1314
aS'history'
p1315
aa(lp1316
S'positive'
p1317
aS'disease'
p1318
aa(lp1319
S'positive'
p1320
aS'family'
p1321
aS'father'
p1322
aS'history'
p1323
aa(lp1324
S'positive'
p1325
aS'family'
p1326
aS'father'
p1327
aa(lp1328
S'positive'
p1329
aS'family'
p1330
aS'history'
p1331
aa(lp1332
S'positive'
p1333
aS'family'
p1334
aa(lp1335
S'positive'
p1336
aS'father'
p1337
aS'history'
p1338
aa(lp1339
S'positive'
p1340
aS'father'
p1341
aa(lp1342
S'positive'
p1343
aS'history'
p1344
aasS'sister who'
p1345
(lp1346
(lp1347
S'sister'
p1348
aS'who'
p1349
aasS'lives her'
p1350
(lp1351
(lp1352
S'lives'
p1353
aS'her'
p1354
aasS'mi fhx died'
p1355
(lp1356
(lp1357
S'mi'
p1358
aS'fhx'
p1359
aS'died'
p1360
aa(lp1361
S'mi'
p1362
aS'fhx'
p1363
aasS'fhx died age father'
p1364
(lp1365
(lp1366
S'fhx'
p1367
aS'died'
p1368
aS'age'
p1369
aS'father'
p1370
aasS'them him'
p1371
(lp1372
(lp1373
S'them'
p1374
aS'him'
p1375
aasS'i not'
p1376
(lp1377
(lp1378
g1136
aS'not'
p1379
aasS'but family history'
p1380
(lp1381
(lp1382
S'but'
p1383
aS'family'
p1384
aS'history'
p1385
aa(lp1386
S'but'
p1387
aS'family'
p1388
aasS'brother her'
p1389
(lp1390
(lp1391
S'brother'
p1392
aS'her'
p1393
aasS'stroke died age'
p1394
(lp1395
(lp1396
S'stroke'
p1397
aS'died'
p1398
aS'age'
p1399
aasS'history her'
p1400
(lp1401
(lp1402
S'history'
p1403
aS'her'
p1404
aasS'significant history'
p1405
(lp1406
(lp1407
S'significant'
p1408
aS'history'
p1409
aasS'father her mother'
p1410
(lp1411
(lp1412
S'father'
p1413
aS'her'
p1414
aS'mother'
p1415
aasS'present daughter'
p1416
(lp1417
(lp1418
S'present'
p1419
aS'daughter'
p1420
aasS'cancer patient'
p1421
(lp1422
(lp1423
S'cancer'
p1424
aS'patient'
p1425
aasS'alcohol father'
p1426
(lp1427
(lp1428
S'alcohol'
p1429
aS'father'
p1430
aasS'symptoms not patient'
p1431
(lp1432
(lp1433
S'symptoms'
p1434
aS'not'
p1435
aasS'gen name description sample'
p1436
(lp1437
(lp1438
S'gen'
p1439
aS'name'
p1440
aS'description'
p1441
aa(lp1442
S'gen'
p1443
aS'name'
p1444
aS'sample'
p1445
aa(lp1446
S'gen'
p1447
aS'name'
p1448
aa(lp1449
S'gen'
p1450
aS'description'
p1451
aa(lp1452
S'gen'
p1453
aS'sample'
p1454
aasS'male white history his'
p1455
(lp1456
(lp1457
S'male'
p1458
aS'white'
p1459
aS'history'
p1460
aasS'years who she'
p1461
(lp1462
(lp1463
S'years'
p1464
aS'who'
p1465
aS'she'
p1466
aasS'consent description patient'
p1467
(lp1468
(lp1469
S'consent'
p1470
aS'description'
p1471
aS'patient'
p1472
aa(lp1473
S'consent'
p1474
aS'description'
p1475
aasS'79 family father age history'
p1476
(lp1477
(lp1478
S'79'
p1479
aS'family'
p1480
aS'father'
p1481
aS'age'
p1482
aS'history'
p1483
aa(lp1484
S'79'
p1485
aS'family'
p1486
aS'father'
p1487
aS'age'
p1488
aa(lp1489
S'79'
p1490
aS'family'
p1491
aS'father'
p1492
aS'history'
p1493
aa(lp1494
S'79'
p1495
aS'family'
p1496
aS'father'
p1497
aa(lp1498
S'79'
p1499
aS'father'
p1500
aS'age'
p1501
aS'history'
p1502
aa(lp1503
S'79'
p1504
aS'father'
p1505
aS'age'
p1506
aa(lp1507
S'79'
p1508
aS'father'
p1509
aS'history'
p1510
aa(lp1511
S'79'
p1512
aS'father'
p1513
aasS'family history she mother'
p1514
(lp1515
(lp1516
S'family'
p1517
aS'history'
p1518
aS'she'
p1519
aS'mother'
p1520
aa(lp1521
S'family'
p1522
aS'history'
p1523
aS'she'
p1524
aasS'here illness his this history mother'
p1525
(lp1526
(lp1527
S'here'
p1528
aS'illness'
p1529
aS'his'
p1530
aS'this'
p1531
aa(lp1532
S'here'
p1533
aS'illness'
p1534
aS'his'
p1535
aasS'two her'
p1536
(lp1537
(lp1538
S'two'
p1539
aS'her'
p1540
aasS'diabetes mother'
p1541
(lp1542
(lp1543
S'diabetes'
p1544
aS'mother'
p1545
aasS'social lives history'
p1546
(lp1547
(lp1548
S'social'
p1549
aS'lives'
p1550
aS'history'
p1551
aa(lp1552
S'social'
p1553
aS'lives'
p1554
aasS'father she'
p1555
(lp1556
(lp1557
S'father'
p1558
aS'she'
p1559
aasS'grandfather family'
p1560
(lp1561
(lp1562
S'grandfather'
p1563
aS'family'
p1564
aasS'male here present his mother illness this history'
p1565
(lp1566
(lp1567
S'male'
p1568
aS'here'
p1569
aS'present'
p1570
aS'illness'
p1571
aS'this'
p1572
aa(lp1573
S'male'
p1574
aS'here'
p1575
aS'present'
p1576
aS'illness'
p1577
aa(lp1578
S'male'
p1579
aS'here'
p1580
aS'present'
p1581
aS'this'
p1582
aa(lp1583
S'male'
p1584
aS'here'
p1585
aS'present'
p1586
aa(lp1587
S'male'
p1588
aS'here'
p1589
aS'illness'
p1590
aS'his'
p1591
aS'this'
p1592
aa(lp1593
S'male'
p1594
aS'here'
p1595
aS'illness'
p1596
aS'his'
p1597
aa(lp1598
S'male'
p1599
aS'here'
p1600
aS'illness'
p1601
aS'this'
p1602
aa(lp1603
S'male'
p1604
aS'here'
p1605
aS'illness'
p1606
aa(lp1607
S'male'
p1608
aS'here'
p1609
aS'this'
p1610
aS'his'
p1611
aS'mother'
p1612
aa(lp1613
S'male'
p1614
aS'here'
p1615
aS'this'
p1616
aS'his'
p1617
aa(lp1618
S'male'
p1619
aS'here'
p1620
aS'this'
p1621
aS'mother'
p1622
aa(lp1623
S'male'
p1624
aS'here'
p1625
aS'this'
p1626
aasS'failure died her'
p1627
(lp1628
(lp1629
S'failure'
p1630
aS'died'
p1631
aS'her'
p1632
aasS'up her'
p1633
(lp1634
(lp1635
S'up'
p1636
aS'her'
p1637
aasS'both lives history'
p1638
(lp1639
(lp1640
S'both'
p1641
aS'lives'
p1642
aS'history'
p1643
aa(lp1644
S'both'
p1645
aS'lives'
p1646
aasS'32 died'
p1647
(lp1648
(lp1649
S'32'
p1650
aS'died'
p1651
aasS'not father'
p1652
(lp1653
(lp1654
S'not'
p1655
aS'father'
p1656
aasS'present illness this'
p1657
(lp1658
(lp1659
S'present'
p1660
aS'illness'
p1661
aS'this'
p1662
aasS'fhx age'
p1663
(lp1664
(lp1665
S'fhx'
p1666
aS'age'
p1667
aasS'present illness history'
p1668
(lp1669
(lp1670
S'present'
p1671
aS'illness'
p1672
aS'history'
p1673
aasS'present patient'
p1674
(lp1675
(lp1676
S'present'
p1677
aS'patient'
p1678
aasS'description his mother'
p1679
(lp1680
(lp1681
S'description'
p1682
aS'his'
p1683
aS'mother'
p1684
aa(lp1685
S'description'
p1686
aS'his'
p1687
aasS'present patient history'
p1688
(lp1689
(lp1690
S'present'
p1691
aS'patient'
p1692
aS'history'
p1693
aasS'also who'
p1694
(lp1695
(lp1696
S'also'
p1697
aS'who'
p1698
aasS'old age mother'
p1699
(lp1700
(lp1701
S'old'
p1702
aS'age'
p1703
aS'mother'
p1704
aasS'white present illness history'
p1705
(lp1706
(lp1707
S'white'
p1708
aS'present'
p1709
aS'illness'
p1710
aS'history'
p1711
aa(lp1712
S'white'
p1713
aS'present'
p1714
aS'illness'
p1715
aa(lp1716
S'white'
p1717
aS'present'
p1718
aS'history'
p1719
aa(lp1720
S'white'
p1721
aS'present'
p1722
aasS'currently lives'
p1723
(lp1724
(lp1725
S'currently'
p1726
aS'lives'
p1727
aasS'delivery mother'
p1728
(lp1729
(lp1730
S'delivery'
p1731
aS'mother'
p1732
aasS'40 died age'
p1733
(lp1734
(lp1735
S'40'
p1736
aS'died'
p1737
aS'age'
p1738
aa(lp1739
S'40'
p1740
aS'died'
p1741
aa(lp1742
S'40'
p1743
aS'age'
p1744
aasS'significant family father'
p1745
(lp1746
(lp1747
S'significant'
p1748
aS'family'
p1749
aS'father'
p1750
aasS'diabetes type'
p1751
(lp1752
(lp1753
S'diabetes'
p1754
aS'type'
p1755
aasS'med gen name description sample'
p1756
(lp1757
(lp1758
S'med'
p1759
aS'gen'
p1760
aS'name'
p1761
aS'description'
p1762
aa(lp1763
S'med'
p1764
aS'gen'
p1765
aS'name'
p1766
aS'sample'
p1767
aa(lp1768
S'med'
p1769
aS'gen'
p1770
aS'name'
p1771
aa(lp1772
S'med'
p1773
aS'gen'
p1774
aS'description'
p1775
aa(lp1776
S'med'
p1777
aS'gen'
p1778
aS'sample'
p1779
aa(lp1780
S'med'
p1781
aS'gen'
p1782
aa(lp1783
S'med'
p1784
aS'name'
p1785
aS'description'
p1786
aa(lp1787
S'med'
p1788
aS'name'
p1789
aS'sample'
p1790
aa(lp1791
S'med'
p1792
aS'name'
p1793
aa(lp1794
S'med'
p1795
aS'description'
p1796
aa(lp1797
S'med'
p1798
aS'sample'
p1799
aasS'diabetes brother'
p1800
(lp1801
(lp1802
S'diabetes'
p1803
aS'brother'
p1804
aasS'have father'
p1805
(lp1806
(lp1807
S'have'
p1808
aS'father'
p1809
aasS'reports history mother'
p1810
(lp1811
(lp1812
S'reports'
p1813
aS'history'
p1814
aS'mother'
p1815
aa(lp1816
S'reports'
p1817
aS'history'
p1818
aasS'your transcription report sample medical mother'
p1819
(lp1820
(lp1821
S'your'
p1822
aS'report'
p1823
aS'sample'
p1824
aa(lp1825
S'your'
p1826
aS'report'
p1827
aa(lp1828
S'your'
p1829
aS'sample'
p1830
aasS'disease patient'
p1831
(lp1832
(lp1833
S'disease'
p1834
aS'patient'
p1835
aasS'died father history her'
p1836
(lp1837
(lp1838
S'died'
p1839
aS'father'
p1840
aS'history'
p1841
aS'her'
p1842
aasS'paternal had'
p1843
(lp1844
(lp1845
S'paternal'
p1846
aS'had'
p1847
aasS'illness this his mother'
p1848
(lp1849
(lp1850
S'illness'
p1851
aS'this'
p1852
aS'his'
p1853
aasS'about she'
p1854
(lp1855
(lp1856
S'about'
p1857
aS'she'
p1858
aasS'been mother'
p1859
(lp1860
(lp1861
S'been'
p1862
aS'mother'
p1863
aasS'fhx died mother'
p1864
(lp1865
(lp1866
S'fhx'
p1867
aS'died'
p1868
aS'mother'
p1869
aasS'no mom patient'
p1870
(lp1871
(lp1872
S'no'
p1873
aS'mom'
p1874
aS'patient'
p1875
aasS'hypertension father'
p1876
(lp1877
(lp1878
S'hypertension'
p1879
aS'father'
p1880
aasS'both two'
p1881
(lp1882
(lp1883
S'both'
p1884
aS'two'
p1885
aasS'present history'
p1886
(lp1887
(lp1888
S'present'
p1889
aS'history'
p1890
aasS'had history'
p1891
(lp1892
(lp1893
S'had'
p1894
aS'history'
p1895
aasS'not who'
p1896
(lp1897
(lp1898
S'not'
p1899
aS'who'
p1900
aasS'heart brother age'
p1901
(lp1902
(lp1903
S'heart'
p1904
aS'brother'
p1905
aS'age'
p1906
aa(lp1907
S'heart'
p1908
aS'brother'
p1909
aasS'here mom'
p1910
(lp1911
(lp1912
S'here'
p1913
aS'mom'
p1914
aasS'heart disease history'
p1915
(lp1916
(lp1917
S'heart'
p1918
aS'disease'
p1919
aS'history'
p1920
aasS'child her mother'
p1921
(lp1922
(lp1923
S'child'
p1924
aS'her'
p1925
aS'mother'
p1926
aa(lp1927
S'child'
p1928
aS'her'
p1929
aasS'stroke history'
p1930
(lp1931
(lp1932
S'stroke'
p1933
aS'history'
p1934
aasS'states patient'
p1935
(lp1936
(lp1937
S'states'
p1938
aS'patient'
p1939
aasS'states his mother'
p1940
(lp1941
(lp1942
S'states'
p1943
aS'his'
p1944
aS'mother'
p1945
aasS'does mother'
p1946
(lp1947
(lp1948
S'does'
p1949
aS'mother'
p1950
aasS'today report mom sample medical patient'
p1951
(lp1952
(lp1953
S'today'
p1954
aS'report'
p1955
aS'mom'
p1956
aS'sample'
p1957
aa(lp1958
S'today'
p1959
aS'report'
p1960
aS'mom'
p1961
aS'patient'
p1962
aa(lp1963
S'today'
p1964
aS'report'
p1965
aS'mom'
p1966
aasS'also she'
p1967
(lp1968
(lp1969
S'also'
p1970
aS'she'
p1971
aasS'also patient'
p1972
(lp1973
(lp1974
S'also'
p1975
aS'patient'
p1976
aasS'male white this his mother'
p1977
(lp1978
(lp1979
S'male'
p1980
aS'white'
p1981
aS'this'
p1982
aS'his'
p1983
aS'mother'
p1984
aa(lp1985
S'male'
p1986
aS'white'
p1987
aS'this'
p1988
aS'his'
p1989
aa(lp1990
S'male'
p1991
aS'white'
p1992
aS'this'
p1993
aS'mother'
p1994
aa(lp1995
S'male'
p1996
aS'white'
p1997
aS'this'
p1998
aasS'associated history'
p1999
(lp2000
(lp2001
S'associated'
p2002
aS'history'
p2003
aasS'alcohol mother'
p2004
(lp2005
(lp2006
S'alcohol'
p2007
aS'mother'
p2008
aasS'no mother'
p2009
(lp2010
(lp2011
S'no'
p2012
aS'mother'
p2013
aasS'mi died age father'
p2014
(lp2015
(lp2016
S'mi'
p2017
aS'died'
p2018
aS'age'
p2019
aS'father'
p2020
aasS'heart died age'
p2021
(lp2022
(lp2023
S'heart'
p2024
aS'died'
p2025
aS'age'
p2026
aasS'side her mother'
p2027
(lp2028
(lp2029
S'side'
p2030
aS'her'
p2031
aS'mother'
p2032
aasS'grandmother father her'
p2033
(lp2034
(lp2035
S'grandmother'
p2036
aS'father'
p2037
aS'her'
p2038
aa(lp2039
S'grandmother'
p2040
aS'father'
p2041
aasS'medical patient history'
p2042
(lp2043
(lp2044
S'medical'
p2045
aS'patient'
p2046
aS'history'
p2047
aasS'alzheimer family grandmother disease history'
p2048
(lp2049
(lp2050
S'alzheimer'
p2051
aS'family'
p2052
aS'disease'
p2053
aS'history'
p2054
aa(lp2055
S'alzheimer'
p2056
aS'family'
p2057
aS'disease'
p2058
aa(lp2059
S'alzheimer'
p2060
aS'family'
p2061
aS'history'
p2062
aa(lp2063
S'alzheimer'
p2064
aS'family'
p2065
aa(lp2066
S'alzheimer'
p2067
aS'history'
p2068
aS'disease'
p2069
aa(lp2070
S'alzheimer'
p2071
aS'history'
p2072
aasS'disease family father history'
p2073
(lp2074
(lp2075
S'disease'
p2076
aS'family'
p2077
aS'father'
p2078
aS'history'
p2079
aa(lp2080
S'disease'
p2081
aS'family'
p2082
aS'father'
p2083
aasS'each her'
p2084
(lp2085
(lp2086
S'each'
p2087
aS'her'
p2088
aasS'brings subjective today transcription report sample medical patient'
p2089
(lp2090
(lp2091
S'brings'
p2092
aS'subjective'
p2093
aS'today'
p2094
aS'transcription'
p2095
aS'report'
p2096
aS'patient'
p2097
aa(lp2098
S'brings'
p2099
aS'subjective'
p2100
aS'today'
p2101
aS'transcription'
p2102
aS'report'
p2103
aa(lp2104
S'brings'
p2105
aS'subjective'
p2106
aS'today'
p2107
aS'transcription'
p2108
aS'patient'
p2109
aa(lp2110
S'brings'
p2111
aS'subjective'
p2112
aS'today'
p2113
aS'transcription'
p2114
aa(lp2115
S'brings'
p2116
aS'subjective'
p2117
aS'today'
p2118
aS'report'
p2119
aS'patient'
p2120
aa(lp2121
S'brings'
p2122
aS'subjective'
p2123
aS'today'
p2124
aS'report'
p2125
aa(lp2126
S'brings'
p2127
aS'subjective'
p2128
aS'today'
p2129
aS'patient'
p2130
aa(lp2131
S'brings'
p2132
aS'subjective'
p2133
aS'today'
p2134
aa(lp2135
S'brings'
p2136
aS'subjective'
p2137
aS'transcription'
p2138
aS'report'
p2139
aS'medical'
p2140
aS'patient'
p2141
aa(lp2142
S'brings'
p2143
aS'subjective'
p2144
aS'transcription'
p2145
aS'report'
p2146
aS'medical'
p2147
aa(lp2148
S'brings'
p2149
aS'subjective'
p2150
aS'transcription'
p2151
aS'report'
p2152
aS'patient'
p2153
aa(lp2154
S'brings'
p2155
aS'subjective'
p2156
aS'transcription'
p2157
aS'report'
p2158
aa(lp2159
S'brings'
p2160
aS'subjective'
p2161
aS'transcription'
p2162
aS'medical'
p2163
aS'patient'
p2164
aa(lp2165
S'brings'
p2166
aS'subjective'
p2167
aS'transcription'
p2168
aS'medical'
p2169
aa(lp2170
S'brings'
p2171
aS'subjective'
p2172
aS'transcription'
p2173
aS'patient'
p2174
aa(lp2175
S'brings'
p2176
aS'subjective'
p2177
aS'transcription'
p2178
aa(lp2179
S'brings'
p2180
aS'subjective'
p2181
aS'report'
p2182
aS'medical'
p2183
aS'patient'
p2184
aa(lp2185
S'brings'
p2186
aS'subjective'
p2187
aS'report'
p2188
aS'medical'
p2189
aa(lp2190
S'brings'
p2191
aS'subjective'
p2192
aS'report'
p2193
aS'patient'
p2194
aa(lp2195
S'brings'
p2196
aS'subjective'
p2197
aS'report'
p2198
aa(lp2199
S'brings'
p2200
aS'subjective'
p2201
aS'medical'
p2202
aS'patient'
p2203
aa(lp2204
S'brings'
p2205
aS'subjective'
p2206
aS'medical'
p2207
aa(lp2208
S'brings'
p2209
aS'subjective'
p2210
aS'patient'
p2211
aa(lp2212
S'brings'
p2213
aS'subjective'
p2214
aa(lp2215
S'brings'
p2216
aS'today'
p2217
aS'transcription'
p2218
aS'report'
p2219
aS'patient'
p2220
aa(lp2221
S'brings'
p2222
aS'today'
p2223
aS'transcription'
p2224
aS'report'
p2225
aa(lp2226
S'brings'
p2227
aS'today'
p2228
aS'transcription'
p2229
aS'patient'
p2230
aa(lp2231
S'brings'
p2232
aS'today'
p2233
aS'transcription'
p2234
aa(lp2235
S'brings'
p2236
aS'today'
p2237
aS'report'
p2238
aS'patient'
p2239
aa(lp2240
S'brings'
p2241
aS'today'
p2242
aS'report'
p2243
aa(lp2244
S'brings'
p2245
aS'today'
p2246
aS'patient'
p2247
aa(lp2248
S'brings'
p2249
aS'today'
p2250
aa(lp2251
S'brings'
p2252
aS'transcription'
p2253
aS'report'
p2254
aS'medical'
p2255
aS'patient'
p2256
aa(lp2257
S'brings'
p2258
aS'transcription'
p2259
aS'report'
p2260
aS'medical'
p2261
aa(lp2262
S'brings'
p2263
aS'transcription'
p2264
aS'report'
p2265
aS'patient'
p2266
aa(lp2267
S'brings'
p2268
aS'transcription'
p2269
aS'report'
p2270
aa(lp2271
S'brings'
p2272
aS'transcription'
p2273
aS'medical'
p2274
aS'patient'
p2275
aa(lp2276
S'brings'
p2277
aS'transcription'
p2278
aS'medical'
p2279
aa(lp2280
S'brings'
p2281
aS'transcription'
p2282
aS'patient'
p2283
aa(lp2284
S'brings'
p2285
aS'transcription'
p2286
aa(lp2287
S'brings'
p2288
aS'report'
p2289
aS'medical'
p2290
aS'patient'
p2291
aa(lp2292
S'brings'
p2293
aS'report'
p2294
aS'medical'
p2295
aa(lp2296
S'brings'
p2297
aS'report'
p2298
aS'patient'
p2299
aa(lp2300
S'brings'
p2301
aS'report'
p2302
aa(lp2303
S'brings'
p2304
aS'medical'
p2305
aS'patient'
p2306
aa(lp2307
S'brings'
p2308
aS'medical'
p2309
aa(lp2310
S'brings'
p2311
aS'patient'
p2312
aasS'having no history'
p2313
(lp2314
(lp2315
S'having'
p2316
aS'no'
p2317
aasS'mom she'
p2318
(lp2319
(lp2320
S'mom'
p2321
aS'she'
p2322
aasS'back she her'
p2323
(lp2324
(lp2325
S'back'
p2326
aS'she'
p2327
aS'her'
p2328
aa(lp2329
S'back'
p2330
aS'she'
p2331
aasS'ear his mother'
p2332
(lp2333
(lp2334
S'ear'
p2335
aS'his'
p2336
aS'mother'
p2337
aa(lp2338
S'ear'
p2339
aS'his'
p2340
aa(lp2341
S'ear'
p2342
aS'mother'
p2343
aasS'did not father'
p2344
(lp2345
(lp2346
S'did'
p2347
aS'not'
p2348
aS'father'
p2349
aasS'social mother history'
p2350
(lp2351
(lp2352
S'social'
p2353
aS'mother'
p2354
aS'history'
p2355
aa(lp2356
S'social'
p2357
aS'mother'
p2358
aasS'being her'
p2359
(lp2360
(lp2361
S'being'
p2362
aS'her'
p2363
aasS'although his'
p2364
(lp2365
(lp2366
S'although'
p2367
aS'his'
p2368
aasS'family she her'
p2369
(lp2370
(lp2371
S'family'
p2372
aS'she'
p2373
aS'her'
p2374
aasS'cabg had'
p2375
(lp2376
(lp2377
S'cabg'
p2378
aS'had'
p2379
aasS'sister mom his'
p2380
(lp2381
(lp2382
S'sister'
p2383
aS'mom'
p2384
aS'his'
p2385
aa(lp2386
S'sister'
p2387
aS'mom'
p2388
aasS'description patient'
p2389
(lp2390
(lp2391
S'description'
p2392
aS'patient'
p2393
aasS'age father'
p2394
(lp2395
(lp2396
S'age'
p2397
aS'father'
p2398
aasS'female this her mother'
p2399
(lp2400
(lp2401
S'female'
p2402
aS'this'
p2403
aasS'who her'
p2404
(lp2405
(lp2406
S'who'
p2407
aS'her'
p2408
aasS'both years'
p2409
(lp2410
(lp2411
S'both'
p2412
aS'years'
p2413
aasS'brothers two'
p2414
(lp2415
(lp2416
S'brothers'
p2417
aS'two'
p2418
aasS'reports family'
p2419
(lp2420
(lp2421
S'reports'
p2422
aS'family'
p2423
aasS'significant family father history'
p2424
(lp2425
(lp2426
S'significant'
p2427
aS'family'
p2428
aS'father'
p2429
aS'history'
p2430
aasS'cancer history her mother'
p2431
(lp2432
(lp2433
S'cancer'
p2434
aS'history'
p2435
aS'her'
p2436
aS'mother'
p2437
aasS'age mother'
p2438
(lp2439
(lp2440
S'age'
p2441
aS'mother'
p2442
aasS'breast history mother'
p2443
(lp2444
(lp2445
S'breast'
p2446
aS'history'
p2447
aS'mother'
p2448
aasS'when not'
p2449
(lp2450
(lp2451
S'when'
p2452
aS'not'
p2453
aasS'states his'
p2454
(lp2455
(lp2456
S'states'
p2457
aS'his'
p2458
aasS'who had she'
p2459
(lp2460
(lp2461
S'who'
p2462
aS'had'
p2463
aS'she'
p2464
aasS'social father history mother'
p2465
(lp2466
(lp2467
S'social'
p2468
aS'father'
p2469
aS'history'
p2470
aS'mother'
p2471
aa(lp2472
S'social'
p2473
aS'father'
p2474
aS'history'
p2475
aa(lp2476
S'social'
p2477
aS'father'
p2478
aS'mother'
p2479
aa(lp2480
S'social'
p2481
aS'father'
p2482
aasS'very his'
p2483
(lp2484
(lp2485
S'very'
p2486
aS'his'
p2487
aasS'your mother'
p2488
(lp2489
(lp2490
S'your'
p2491
aS'mother'
p2492
aasS'grandmother mother'
p2493
(lp2494
(lp2495
S'grandmother'
p2496
aS'mother'
p2497
aasS'her mother'
p2498
(lp2499
(lp2500
S'her'
p2501
aS'mother'
p2502
aasS'32 cancer'
p2503
(lp2504
(lp2505
S'32'
p2506
aS'cancer'
p2507
aasS'brought mother'
p2508
(lp2509
(lp2510
S'brought'
p2511
aS'mother'
p2512
aasS'reports but'
p2513
(lp2514
(lp2515
S'reports'
p2516
aS'but'
p2517
aasS'status patient her'
p2518
(lp2519
(lp2520
S'status'
p2521
aS'patient'
p2522
aasS'brothers who'
p2523
(lp2524
(lp2525
S'brothers'
p2526
aS'who'
p2527
aasS'healthy mother'
p2528
(lp2529
(lp2530
S'healthy'
p2531
aS'mother'
p2532
aasS'years who'
p2533
(lp2534
(lp2535
S'years'
p2536
aS'who'
p2537
aasS'breast cancer history'
p2538
(lp2539
(lp2540
S'breast'
p2541
aS'cancer'
p2542
aS'history'
p2543
aasS'old father'
p2544
(lp2545
(lp2546
S'old'
p2547
aS'father'
p2548
aasS'cancer had mother'
p2549
(lp2550
(lp2551
S'cancer'
p2552
aS'had'
p2553
aS'mother'
p2554
aasS'sons years'
p2555
(lp2556
(lp2557
S'sons'
p2558
aS'years'
p2559
aasS'male white his mother'
p2560
(lp2561
(lp2562
S'male'
p2563
aS'white'
p2564
aS'his'
p2565
aS'mother'
p2566
aa(lp2567
S'male'
p2568
aS'white'
p2569
aS'mother'
p2570
aasS'9 age'
p2571
(lp2572
(lp2573
S'9'
p2574
aS'age'
p2575
aasS'transcription report sample medical'
p2576
(lp2577
(lp2578
S'transcription'
p2579
aS'report'
p2580
aS'sample'
p2581
aS'medical'
p2582
aa(lp2583
S'transcription'
p2584
aS'report'
p2585
aS'sample'
p2586
aa(lp2587
S'transcription'
p2588
aS'report'
p2589
aS'medical'
p2590
aa(lp2591
S'transcription'
p2592
aS'report'
p2593
aa(lp2594
S'transcription'
p2595
aS'sample'
p2596
aS'medical'
p2597
aa(lp2598
S'transcription'
p2599
aS'sample'
p2600
aa(lp2601
S'transcription'
p2602
aS'medical'
p2603
aasS'sons she'
p2604
(lp2605
(lp2606
S'sons'
p2607
aS'she'
p2608
aasS'home when'
p2609
(lp2610
(lp2611
S'home'
p2612
aS'when'
p2613
aasS'fhx died father mother'
p2614
(lp2615
(lp2616
S'fhx'
p2617
aS'died'
p2618
aS'father'
p2619
aS'mother'
p2620
aasS'died father mother'
p2621
(lp2622
(lp2623
S'died'
p2624
aS'father'
p2625
aS'mother'
p2626
aasS'report sample medical'
p2627
(lp2628
(lp2629
S'report'
p2630
aS'sample'
p2631
aS'medical'
p2632
aa(lp2633
S'report'
p2634
aS'sample'
p2635
aasS'well she'
p2636
(lp2637
(lp2638
S'well'
p2639
aS'she'
p2640
aasS'brother who had she'
p2641
(lp2642
(lp2643
S'brother'
p2644
aS'who'
p2645
aS'had'
p2646
aS'she'
p2647
aa(lp2648
S'brother'
p2649
aS'who'
p2650
aS'she'
p2651
aasS'maternal diabetes'
p2652
(lp2653
(lp2654
S'maternal'
p2655
aS'diabetes'
p2656
aasS'diabetes family her'
p2657
(lp2658
(lp2659
S'diabetes'
p2660
aS'family'
p2661
aS'her'
p2662
aasS'cancer sister age'
p2663
(lp2664
(lp2665
S'cancer'
p2666
aS'sister'
p2667
aS'age'
p2668
aa(lp2669
S'cancer'
p2670
aS'sister'
p2671
aasS'died age family'
p2672
(lp2673
(lp2674
S'died'
p2675
aS'age'
p2676
aS'family'
p2677
aasS'one brother she'
p2678
(lp2679
(lp2680
S'one'
p2681
aS'brother'
p2682
aS'she'
p2683
aasS'several mom'
p2684
(lp2685
(lp2686
S'several'
p2687
aS'mom'
p2688
aasS'admits maternal family patient history'
p2689
(lp2690
(lp2691
S'admits'
p2692
aS'maternal'
p2693
aS'patient'
p2694
aa(lp2695
S'admits'
p2696
aS'maternal'
p2697
aasS'heart age'
p2698
(lp2699
(lp2700
S'heart'
p2701
aS'age'
p2702
aasS'brother father history'
p2703
(lp2704
(lp2705
S'brother'
p2706
aS'father'
p2707
aS'history'
p2708
aasS'had her mother'
p2709
(lp2710
(lp2711
S'had'
p2712
aS'her'
p2713
aS'mother'
p2714
aasS'fhx died father'
p2715
(lp2716
(lp2717
S'fhx'
p2718
aS'died'
p2719
aS'father'
p2720
aasS'age father her'
p2721
(lp2722
(lp2723
S'age'
p2724
aS'father'
p2725
aS'her'
p2726
aasS'being her mother'
p2727
(lp2728
(lp2729
S'being'
p2730
aS'her'
p2731
aS'mother'
p2732
aasS'states been'
p2733
(lp2734
(lp2735
S'states'
p2736
aS'been'
p2737
aasS'kidney failure'
p2738
(lp2739
(lp2740
S'kidney'
p2741
aS'failure'
p2742
aasS'brother history'
p2743
(lp2744
(lp2745
S'brother'
p2746
aS'history'
p2747
aasS'who family her'
p2748
(lp2749
(lp2750
S'who'
p2751
aS'family'
p2752
aS'her'
p2753
aasS'father his'
p2754
(lp2755
(lp2756
S'father'
p2757
aS'his'
p2758
aasS'states father she her'
p2759
(lp2760
(lp2761
S'states'
p2762
aS'father'
p2763
aS'she'
p2764
aS'her'
p2765
aa(lp2766
S'states'
p2767
aS'father'
p2768
aS'she'
p2769
aa(lp2770
S'states'
p2771
aS'father'
p2772
aS'her'
p2773
aasS'well who mother'
p2774
(lp2775
(lp2776
S'well'
p2777
aS'who'
p2778
aasS'ages old years'
p2779
(lp2780
(lp2781
S'ages'
p2782
aS'old'
p2783
aS'years'
p2784
aa(lp2785
S'ages'
p2786
aS'old'
p2787
aasS'healthy age'
p2788
(lp2789
(lp2790
S'healthy'
p2791
aS'age'
p2792
aasS'problems there'
p2793
(lp2794
(lp2795
S'problems'
p2796
aS'there'
p2797
aasS'over daughter had'
p2798
(lp2799
(lp2800
S'over'
p2801
aS'daughter'
p2802
aasS'grandmother history her'
p2803
(lp2804
(lp2805
S'grandmother'
p2806
aS'history'
p2807
aS'her'
p2808
aasS'artery family coronary history'
p2809
(lp2810
(lp2811
S'artery'
p2812
aS'family'
p2813
aS'coronary'
p2814
aS'history'
p2815
aa(lp2816
S'artery'
p2817
aS'family'
p2818
aS'coronary'
p2819
aa(lp2820
S'artery'
p2821
aS'family'
p2822
aS'history'
p2823
aa(lp2824
S'artery'
p2825
aS'family'
p2826
aasS'died had mother'
p2827
(lp2828
(lp2829
S'died'
p2830
aS'had'
p2831
aS'mother'
p2832
aasS'not her'
p2833
(lp2834
(lp2835
S'not'
p2836
aS'her'
p2837
aasS'ho htn fhx'
p2838
(lp2839
(lp2840
S'ho'
p2841
aS'htn'
p2842
aS'fhx'
p2843
aa(lp2844
S'ho'
p2845
aS'htn'
p2846
aa(lp2847
S'ho'
p2848
aS'fhx'
p2849
aasS'sister age'
p2850
(lp2851
(lp2852
S'sister'
p2853
aS'age'
p2854
aasS'admits patient'
p2855
(lp2856
(lp2857
S'admits'
p2858
aS'patient'
p2859
aasS'also cancer'
p2860
(lp2861
(lp2862
S'also'
p2863
aS'cancer'
p2864
aasS'died family her'
p2865
(lp2866
(lp2867
S'died'
p2868
aS'family'
p2869
aS'her'
p2870
aasS'both history'
p2871
(lp2872
(lp2873
S'both'
p2874
aS'history'
p2875
aasS'sister she'
p2876
(lp2877
(lp2878
S'sister'
p2879
aS'she'
p2880
aasS'died mother'
p2881
(lp2882
(lp2883
S'died'
p2884
aS'mother'
p2885
aasS'heart diabetes disease'
p2886
(lp2887
(lp2888
S'heart'
p2889
aS'diabetes'
p2890
aS'disease'
p2891
aasS'cancer age father'
p2892
(lp2893
(lp2894
S'cancer'
p2895
aS'age'
p2896
aS'father'
p2897
aasS'they have'
p2898
(lp2899
(lp2900
S'they'
p2901
aS'have'
p2902
aasS'any very'
p2903
(lp2904
(lp2905
S'any'
p2906
aS'very'
p2907
aasS'two who'
p2908
(lp2909
(lp2910
S'two'
p2911
aS'who'
p2912
aasS'old years his mother'
p2913
(lp2914
(lp2915
S'old'
p2916
aS'years'
p2917
aS'his'
p2918
aS'mother'
p2919
aasS'coronary mother'
p2920
(lp2921
(lp2922
S'coronary'
p2923
aS'mother'
p2924
aasS'associated admits patient family history'
p2925
(lp2926
(lp2927
S'associated'
p2928
aS'admits'
p2929
aS'patient'
p2930
aS'history'
p2931
aa(lp2932
S'associated'
p2933
aS'admits'
p2934
aS'patient'
p2935
aasS'one died'
p2936
(lp2937
(lp2938
S'one'
p2939
aS'died'
p2940
aasS'one brother'
p2941
(lp2942
(lp2943
S'one'
p2944
aS'brother'
p2945
aasS'strokes father'
p2946
(lp2947
(lp2948
S'strokes'
p2949
aS'father'
p2950
aasS'died age her'
p2951
(lp2952
(lp2953
S'died'
p2954
aS'age'
p2955
aS'her'
p2956
aasS'died family father'
p2957
(lp2958
(lp2959
S'died'
p2960
aS'family'
p2961
aS'father'
p2962
aasS'80 father'
p2963
(lp2964
(lp2965
S'80'
p2966
aS'father'
p2967
aasS'had her'
p2968
(lp2969
(lp2970
S'had'
p2971
aS'her'
p2972
aasS'over had she her'
p2973
(lp2974
(lp2975
S'over'
p2976
aS'had'
p2977
aS'her'
p2978
aa(lp2979
S'over'
p2980
aS'her'
p2981
aasS'disease father her'
p2982
(lp2983
(lp2984
S'disease'
p2985
aS'father'
p2986
aS'her'
p2987
aasS'died history her'
p2988
(lp2989
(lp2990
S'died'
p2991
aS'history'
p2992
aS'her'
p2993
aasS'does not'
p2994
(lp2995
(lp2996
S'does'
p2997
aS'not'
p2998
aasS'breast family'
p2999
(lp3000
(lp3001
S'breast'
p3002
aS'family'
p3003
aasS'disease brother'
p3004
(lp3005
(lp3006
S'disease'
p3007
aS'brother'
p3008
aasS'asthma healthy'
p3009
(lp3010
(lp3011
S'asthma'
p3012
aS'healthy'
p3013
aasS'general name type description sample'
p3014
(lp3015
(lp3016
S'general'
p3017
aS'name'
p3018
aS'type'
p3019
aS'description'
p3020
aa(lp3021
S'general'
p3022
aS'name'
p3023
aS'type'
p3024
aS'sample'
p3025
aa(lp3026
S'general'
p3027
aS'name'
p3028
aS'type'
p3029
aa(lp3030
S'general'
p3031
aS'name'
p3032
aS'description'
p3033
aa(lp3034
S'general'
p3035
aS'name'
p3036
aS'sample'
p3037
aa(lp3038
S'general'
p3039
aS'name'
p3040
aa(lp3041
S'general'
p3042
aS'type'
p3043
aS'description'
p3044
aa(lp3045
S'general'
p3046
aS'type'
p3047
aS'sample'
p3048
aa(lp3049
S'general'
p3050
aS'type'
p3051
aa(lp3052
S'general'
p3053
aS'description'
p3054
aa(lp3055
S'general'
p3056
aS'sample'
p3057
aasS'taking medications his'
p3058
(lp3059
(lp3060
S'taking'
p3061
aS'his'
p3062
aasS'comes mother'
p3063
(lp3064
(lp3065
S'comes'
p3066
aS'mother'
p3067
aasS'father history mother'
p3068
(lp3069
(lp3070
S'father'
p3071
aS'history'
p3072
aS'mother'
p3073
aasS'home his'
p3074
(lp3075
(lp3076
S'home'
p3077
aS'his'
p3078
aasS'hypertension his'
p3079
(lp3080
(lp3081
S'hypertension'
p3082
aS'his'
p3083
aasS'white this history his mother'
p3084
(lp3085
(lp3086
S'white'
p3087
aS'this'
p3088
aS'history'
p3089
aasS'medication father his'
p3090
(lp3091
(lp3092
S'medication'
p3093
aS'father'
p3094
aS'his'
p3095
aa(lp3096
S'medication'
p3097
aS'father'
p3098
aasS'breast cancer age had'
p3099
(lp3100
(lp3101
S'breast'
p3102
aS'cancer'
p3103
aS'age'
p3104
aS'had'
p3105
aasS'age had'
p3106
(lp3107
(lp3108
S'age'
p3109
aS'had'
p3110
aasS'cancer died'
p3111
(lp3112
(lp3113
S'cancer'
p3114
aS'died'
p3115
aasS'name medical description sample'
p3116
(lp3117
(lp3118
S'name'
p3119
aS'medical'
p3120
aS'description'
p3121
aa(lp3122
S'name'
p3123
aS'medical'
p3124
aasS'home daughter'
p3125
(lp3126
(lp3127
S'home'
p3128
aS'daughter'
p3129
aasS'associated maternal family patient history'
p3130
(lp3131
(lp3132
S'associated'
p3133
aS'maternal'
p3134
aS'patient'
p3135
aa(lp3136
S'associated'
p3137
aS'maternal'
p3138
aasS'lives brother'
p3139
(lp3140
(lp3141
S'lives'
p3142
aS'brother'
p3143
aasS'i this'
p3144
(lp3145
(lp3146
g1136
aS'this'
p3147
aasS'male present illness history his'
p3148
(lp3149
(lp3150
S'male'
p3151
aS'present'
p3152
aS'illness'
p3153
aS'history'
p3154
aa(lp3155
S'male'
p3156
aS'present'
p3157
aS'illness'
p3158
aa(lp3159
S'male'
p3160
aS'present'
p3161
aS'history'
p3162
aa(lp3163
S'male'
p3164
aS'present'
p3165
aasS'fact she'
p3166
(lp3167
(lp3168
S'fact'
p3169
aS'she'
p3170
aasS'grandmother disease'
p3171
(lp3172
(lp3173
S'grandmother'
p3174
aS'disease'
p3175
aasS'did father'
p3176
(lp3177
(lp3178
S'did'
p3179
aS'father'
p3180
aasS'died age'
p3181
(lp3182
(lp3183
S'died'
p3184
aS'age'
p3185
aasS'maternal grandmother diabetes'
p3186
(lp3187
(lp3188
S'maternal'
p3189
aS'grandmother'
p3190
aS'diabetes'
p3191
aasS'who his'
p3192
(lp3193
(lp3194
S'who'
p3195
aS'his'
p3196
aasS'had his'
p3197
(lp3198
(lp3199
S'had'
p3200
aS'his'
p3201
aasS'both brother'
p3202
(lp3203
(lp3204
S'both'
p3205
aS'brother'
p3206
aasS'symptoms his'
p3207
(lp3208
(lp3209
S'symptoms'
p3210
aS'his'
p3211
aasS'failure heart died'
p3212
(lp3213
(lp3214
S'failure'
p3215
aS'heart'
p3216
aS'died'
p3217
aa(lp3218
S'failure'
p3219
aS'heart'
p3220
aasS'family history'
p3221
(lp3222
(lp3223
S'family'
p3224
aS'history'
p3225
aasS'old who'
p3226
(lp3227
(lp3228
S'old'
p3229
aS'who'
p3230
aasS'present this history'
p3231
(lp3232
(lp3233
S'present'
p3234
aS'this'
p3235
aS'history'
p3236
aasS'2 had'
p3237
(lp3238
(lp3239
S'2'
p3240
aS'had'
p3241
aasS'age history'
p3242
(lp3243
(lp3244
S'age'
p3245
aS'history'
p3246
aasS'lives his mother'
p3247
(lp3248
(lp3249
S'lives'
p3250
aS'his'
p3251
aS'mother'
p3252
aasS'mi died father'
p3253
(lp3254
(lp3255
S'mi'
p3256
aS'died'
p3257
aS'father'
p3258
aasS'lung history'
p3259
(lp3260
(lp3261
S'lung'
p3262
aS'history'
p3263
aasS'two brother age'
p3264
(lp3265
(lp3266
S'two'
p3267
aS'brother'
p3268
aS'age'
p3269
aa(lp3270
S'two'
p3271
aS'age'
p3272
aasS'age who'
p3273
(lp3274
(lp3275
S'age'
p3276
aS'who'
p3277
aasS'patient history'
p3278
(lp3279
(lp3280
S'patient'
p3281
aS'history'
p3282
aasS'failure heart mother died'
p3283
(lp3284
(lp3285
S'failure'
p3286
aS'heart'
p3287
aS'mother'
p3288
aS'died'
p3289
aa(lp3290
S'failure'
p3291
aS'heart'
p3292
aS'mother'
p3293
aasS'disease history'
p3294
(lp3295
(lp3296
S'disease'
p3297
aS'history'
p3298
aasS'white his mother'
p3299
(lp3300
(lp3301
S'white'
p3302
aS'his'
p3303
aS'mother'
p3304
aa(lp3305
S'white'
p3306
aS'mother'
p3307
aasS'when about'
p3308
(lp3309
(lp3310
S'when'
p3311
aS'about'
p3312
aasS'reports she mother'
p3313
(lp3314
(lp3315
S'reports'
p3316
aS'she'
p3317
aS'mother'
p3318
aasS'medications patient'
p3319
(lp3320
(lp3321
S'medications'
p3322
aS'patient'
p3323
aasS'cancer had family'
p3324
(lp3325
(lp3326
S'cancer'
p3327
aS'had'
p3328
aS'family'
p3329
aasS'male white present illness history his'
p3330
(lp3331
(lp3332
S'male'
p3333
aS'white'
p3334
aS'present'
p3335
aS'illness'
p3336
aS'history'
p3337
aa(lp3338
S'male'
p3339
aS'white'
p3340
aS'present'
p3341
aS'illness'
p3342
aa(lp3343
S'male'
p3344
aS'white'
p3345
aS'present'
p3346
aS'history'
p3347
aa(lp3348
S'male'
p3349
aS'white'
p3350
aS'present'
p3351
aa(lp3352
S'male'
p3353
aS'white'
p3354
aS'illness'
p3355
aS'history'
p3356
aa(lp3357
S'male'
p3358
aS'white'
p3359
aS'illness'
p3360
aS'his'
p3361
aa(lp3362
S'male'
p3363
aS'white'
p3364
aS'illness'
p3365
aasS'gestation mother'
p3366
(lp3367
(lp3368
S'gestation'
p3369
aS'mother'
p3370
aasS'transcription this report sample medical mother'
p3371
(lp3372
(lp3373
S'transcription'
p3374
aS'this'
p3375
aS'report'
p3376
aS'medical'
p3377
aa(lp3378
S'transcription'
p3379
aS'this'
p3380
aS'report'
p3381
aa(lp3382
S'transcription'
p3383
aS'this'
p3384
aS'medical'
p3385
aa(lp3386
S'transcription'
p3387
aS'this'
p3388
aasS'who patient'
p3389
(lp3390
(lp3391
S'who'
p3392
aS'patient'
p3393
aasS'here her'
p3394
(lp3395
(lp3396
S'here'
p3397
aS'her'
p3398
aasS'fhx disease father'
p3399
(lp3400
(lp3401
S'fhx'
p3402
aS'disease'
p3403
aS'father'
p3404
aa(lp3405
S'fhx'
p3406
aS'disease'
p3407
aasS'years history mother'
p3408
(lp3409
(lp3410
S'years'
p3411
aS'history'
p3412
aS'mother'
p3413
aasS'coronary disease history'
p3414
(lp3415
(lp3416
S'coronary'
p3417
aS'disease'
p3418
aS'history'
p3419
aasS'both years brother history'
p3420
(lp3421
(lp3422
S'both'
p3423
aS'years'
p3424
aS'brother'
p3425
aasS'medical had'
p3426
(lp3427
(lp3428
S'medical'
p3429
aS'had'
p3430
aasS'years his mother'
p3431
(lp3432
(lp3433
S'years'
p3434
aS'his'
p3435
aS'mother'
p3436
aasS'alcohol she'
p3437
(lp3438
(lp3439
S'alcohol'
p3440
aS'she'
p3441
aasS'female who'
p3442
(lp3443
(lp3444
S'female'
p3445
aS'who'
p3446
aasS'mi died'
p3447
(lp3448
(lp3449
S'mi'
p3450
aS'died'
p3451
aasS'infarction myocardial died'
p3452
(lp3453
(lp3454
S'infarction'
p3455
aS'myocardial'
p3456
aS'died'
p3457
aa(lp3458
S'infarction'
p3459
aS'myocardial'
p3460
aa(lp3461
S'infarction'
p3462
aS'died'
p3463
aa(lp3464
S'myocardial'
p3465
aS'died'
p3466
aasS'sons two'
p3467
(lp3468
(lp3469
S'sons'
p3470
aS'two'
p3471
aasS'coronary family father history'
p3472
(lp3473
(lp3474
S'coronary'
p3475
aS'family'
p3476
aS'father'
p3477
aS'history'
p3478
aa(lp3479
S'coronary'
p3480
aS'family'
p3481
aS'father'
p3482
aasS'79 family age history'
p3483
(lp3484
(lp3485
S'79'
p3486
aS'family'
p3487
aS'age'
p3488
aS'history'
p3489
aa(lp3490
S'79'
p3491
aS'family'
p3492
aS'age'
p3493
aa(lp3494
S'79'
p3495
aS'family'
p3496
aS'history'
p3497
aa(lp3498
S'79'
p3499
aS'family'
p3500
aasS'had family'
p3501
(lp3502
(lp3503
S'had'
p3504
aS'family'
p3505
aasS'report medical this mother'
p3506
(lp3507
(lp3508
S'report'
p3509
aS'medical'
p3510
aS'this'
p3511
aasS'male white his'
p3512
(lp3513
(lp3514
S'male'
p3515
aS'white'
p3516
aS'his'
p3517
aasS'paternal grandmother'
p3518
(lp3519
(lp3520
S'paternal'
p3521
aS'grandmother'
p3522
aasS'lives patient'
p3523
(lp3524
(lp3525
S'lives'
p3526
aS'patient'
p3527
aasS'mi age father'
p3528
(lp3529
(lp3530
S'mi'
p3531
aS'age'
p3532
aS'father'
p3533
aasS'died her mother'
p3534
(lp3535
(lp3536
S'died'
p3537
aS'her'
p3538
aS'mother'
p3539
aasS'ages years'
p3540
(lp3541
(lp3542
S'ages'
p3543
aS'years'
p3544
aasS'presents this mother'
p3545
(lp3546
(lp3547
S'presents'
p3548
aS'this'
p3549
aa(lp3550
S'presents'
p3551
aS'mother'
p3552
aasS'male here his mother'
p3553
(lp3554
(lp3555
S'male'
p3556
aS'here'
p3557
aS'his'
p3558
aS'mother'
p3559
aa(lp3560
S'male'
p3561
aS'here'
p3562
aS'his'
p3563
aa(lp3564
S'male'
p3565
aS'here'
p3566
aS'mother'
p3567
aa(lp3568
S'male'
p3569
aS'here'
p3570
aasS'failure heart her died'
p3571
(lp3572
(lp3573
S'failure'
p3574
aS'heart'
p3575
aS'her'
p3576
aS'died'
p3577
aa(lp3578
S'failure'
p3579
aS'heart'
p3580
aS'her'
p3581
aasS'male illness history his'
p3582
(lp3583
(lp3584
S'male'
p3585
aS'illness'
p3586
aS'history'
p3587
aa(lp3588
S'male'
p3589
aS'illness'
p3590
aS'his'
p3591
aa(lp3592
S'male'
p3593
aS'illness'
p3594
aasS'stroke died mother'
p3595
(lp3596
(lp3597
S'stroke'
p3598
aS'died'
p3599
aS'mother'
p3600
aasS'there family'
p3601
(lp3602
(lp3603
S'there'
p3604
aS'family'
p3605
aasS'who mother'
p3606
(lp3607
(lp3608
S'who'
p3609
aS'mother'
p3610
aasS'but mother'
p3611
(lp3612
(lp3613
S'but'
p3614
aS'mother'
p3615
aasS'chart mother'
p3616
(lp3617
(lp3618
S'chart'
p3619
aS'mother'
p3620
aasS'description sample'
p3621
(lp3622
(lp3623
S'description'
p3624
aS'sample'
p3625
aasS'reports but she'
p3626
(lp3627
(lp3628
S'reports'
p3629
aS'but'
p3630
aS'she'
p3631
aasS'congestive failure heart died'
p3632
(lp3633
(lp3634
S'congestive'
p3635
aS'failure'
p3636
aS'heart'
p3637
aS'died'
p3638
aa(lp3639
S'congestive'
p3640
aS'failure'
p3641
aS'heart'
p3642
aa(lp3643
S'congestive'
p3644
aS'failure'
p3645
aS'died'
p3646
aa(lp3647
S'congestive'
p3648
aS'failure'
p3649
aa(lp3650
S'congestive'
p3651
aS'heart'
p3652
aS'died'
p3653
aa(lp3654
S'congestive'
p3655
aS'heart'
p3656
aa(lp3657
S'congestive'
p3658
aS'died'
p3659
aasS'obtained informed consent'
p3660
(lp3661
(lp3662
S'obtained'
p3663
aS'informed'
p3664
aS'consent'
p3665
aa(lp3666
S'obtained'
p3667
aS'informed'
p3668
aa(lp3669
S'obtained'
p3670
aS'consent'
p3671
aasS'fhx father'
p3672
(lp3673
(lp3674
S'fhx'
p3675
aS'father'
p3676
aasS'years died father'
p3677
(lp3678
(lp3679
S'years'
p3680
aS'died'
p3681
aS'father'
p3682
aasS'breast cancer her'
p3683
(lp3684
(lp3685
S'breast'
p3686
aS'cancer'
p3687
aS'her'
p3688
aasS'his her'
p3689
(lp3690
(lp3691
S'his'
p3692
aS'her'
p3693
aasS'currently his'
p3694
(lp3695
(lp3696
S'currently'
p3697
aS'his'
p3698
aasS'significant cancer family'
p3699
(lp3700
(lp3701
S'significant'
p3702
aS'cancer'
p3703
aasS'stroke died'
p3704
(lp3705
(lp3706
S'stroke'
p3707
aS'died'
p3708
aasS'died her'
p3709
(lp3710
(lp3711
S'died'
p3712
aS'her'
p3713
aasS'unknown mother'
p3714
(lp3715
(lp3716
S'unknown'
p3717
aS'mother'
p3718
aasS'ages two'
p3719
(lp3720
(lp3721
S'ages'
p3722
aS'two'
p3723
aasS'siblings two brother age'
p3724
(lp3725
(lp3726
S'siblings'
p3727
aS'two'
p3728
aS'brother'
p3729
aS'age'
p3730
aa(lp3731
S'siblings'
p3732
aS'two'
p3733
aS'brother'
p3734
aa(lp3735
S'siblings'
p3736
aS'two'
p3737
aS'age'
p3738
aa(lp3739
S'siblings'
p3740
aS'two'
p3741
aasS'two years'
p3742
(lp3743
(lp3744
S'two'
p3745
aS'years'
p3746
aasS'illness medical'
p3747
(lp3748
(lp3749
S'illness'
p3750
aS'medical'
p3751
aasS'years patient his mother'
p3752
(lp3753
(lp3754
S'years'
p3755
aS'patient'
p3756
aS'his'
p3757
aasS'social history'
p3758
(lp3759
(lp3760
S'social'
p3761
aS'history'
p3762
aasS'unknown died'
p3763
(lp3764
(lp3765
S'unknown'
p3766
aS'died'
p3767
aasS'74 died age'
p3768
(lp3769
(lp3770
S'74'
p3771
aS'died'
p3772
aS'age'
p3773
aa(lp3774
S'74'
p3775
aS'died'
p3776
aa(lp3777
S'74'
p3778
aS'age'
p3779
aasS'cancer mother'
p3780
(lp3781
(lp3782
S'cancer'
p3783
aS'mother'
p3784
aasS'medical father history'
p3785
(lp3786
(lp3787
S'medical'
p3788
aS'father'
p3789
aS'history'
p3790
aa(lp3791
S'medical'
p3792
aS'father'
p3793
aasS'died history'
p3794
(lp3795
(lp3796
S'died'
p3797
aS'history'
p3798
aasS'white illness this history his mother'
p3799
(lp3800
(lp3801
S'white'
p3802
aS'illness'
p3803
aS'this'
p3804
aS'history'
p3805
aa(lp3806
S'white'
p3807
aS'illness'
p3808
aS'this'
p3809
aS'his'
p3810
aa(lp3811
S'white'
p3812
aS'illness'
p3813
aS'this'
p3814
aasS'grandfather patient'
p3815
(lp3816
(lp3817
S'grandfather'
p3818
aS'patient'
p3819
aasS'several about but she'
p3820
(lp3821
(lp3822
S'several'
p3823
aS'about'
p3824
aS'but'
p3825
aS'she'
p3826
aa(lp3827
S'several'
p3828
aS'about'
p3829
aS'but'
p3830
aa(lp3831
S'several'
p3832
aS'about'
p3833
aS'she'
p3834
aa(lp3835
S'several'
p3836
aS'but'
p3837
aS'she'
p3838
aa(lp3839
S'several'
p3840
aS'but'
p3841
aasS'this mother'
p3842
(lp3843
(lp3844
S'this'
p3845
aS'mother'
p3846
aasS'artery coronary'
p3847
(lp3848
(lp3849
S'artery'
p3850
aS'coronary'
p3851
aasS'sometimes his'
p3852
(lp3853
(lp3854
S'sometimes'
p3855
aS'his'
p3856
aasS'did his'
p3857
(lp3858
(lp3859
S'did'
p3860
aS'his'
p3861
aasS'34 age'
p3862
(lp3863
(lp3864
S'34'
p3865
aS'age'
p3866
aasS'significant family history'
p3867
(lp3868
(lp3869
S'significant'
p3870
aS'family'
p3871
aS'history'
p3872
aasS'family father'
p3873
(lp3874
(lp3875
S'family'
p3876
aS'father'
p3877
aasS'description transcription report sample medical'
p3878
(lp3879
(lp3880
S'description'
p3881
aS'transcription'
p3882
aS'report'
p3883
aS'medical'
p3884
aa(lp3885
S'description'
p3886
aS'transcription'
p3887
aS'report'
p3888
aa(lp3889
S'description'
p3890
aS'transcription'
p3891
aS'medical'
p3892
aa(lp3893
S'description'
p3894
aS'transcription'
p3895
aasS'reports patient'
p3896
(lp3897
(lp3898
S'reports'
p3899
aS'patient'
p3900
aasS'fhx died age'
p3901
(lp3902
(lp3903
S'fhx'
p3904
aS'died'
p3905
aS'age'
p3906
aasS'79 stroke age family history'
p3907
(lp3908
(lp3909
S'79'
p3910
aS'stroke'
p3911
aS'age'
p3912
aS'history'
p3913
aa(lp3914
S'79'
p3915
aS'stroke'
p3916
aS'age'
p3917
aa(lp3918
S'79'
p3919
aS'stroke'
p3920
aS'history'
p3921
aa(lp3922
S'79'
p3923
aS'stroke'
p3924
aasS'heart had'
p3925
(lp3926
(lp3927
S'heart'
p3928
aS'had'
p3929
aasS'artery disease history coronary'
p3930
(lp3931
(lp3932
S'artery'
p3933
aS'disease'
p3934
aS'history'
p3935
aS'coronary'
p3936
aa(lp3937
S'artery'
p3938
aS'disease'
p3939
aS'history'
p3940
aasS'age family her'
p3941
(lp3942
(lp3943
S'age'
p3944
aS'family'
p3945
aS'her'
p3946
aasS'also had'
p3947
(lp3948
(lp3949
S'also'
p3950
aS'had'
p3951
aasS'since been'
p3952
(lp3953
(lp3954
S'since'
p3955
aS'been'
p3956
aasS'lives age'
p3957
(lp3958
(lp3959
S'lives'
p3960
aS'age'
p3961
aasS'today mom patient'
p3962
(lp3963
(lp3964
S'today'
p3965
aS'mom'
p3966
aS'patient'
p3967
aasS'diabetes father history'
p3968
(lp3969
(lp3970
S'diabetes'
p3971
aS'father'
p3972
aS'history'
p3973
aasS'side family father'
p3974
(lp3975
(lp3976
S'side'
p3977
aS'family'
p3978
aS'father'
p3979
aasS'reports been'
p3980
(lp3981
(lp3982
S'reports'
p3983
aS'been'
p3984
aasS'cancer history'
p3985
(lp3986
(lp3987
S'cancer'
p3988
aS'history'
p3989
aasS'been her'
p3990
(lp3991
(lp3992
S'been'
p3993
aS'her'
p3994
aasS'associated admits family history'
p3995
(lp3996
(lp3997
S'associated'
p3998
aS'admits'
p3999
aS'history'
p4000
aa(lp4001
S'associated'
p4002
aS'admits'
p4003
aasS'but mom she'
p4004
(lp4005
(lp4006
S'but'
p4007
aS'mom'
p4008
aS'she'
p4009
aasS'stroke father history'
p4010
(lp4011
(lp4012
S'stroke'
p4013
aS'father'
p4014
aS'history'
p4015
aasS'some had'
p4016
(lp4017
(lp4018
S'some'
p4019
aS'had'
p4020
aasS'years brother who'
p4021
(lp4022
(lp4023
S'years'
p4024
aS'brother'
p4025
aS'who'
p4026
aasS'cancer had father'
p4027
(lp4028
(lp4029
S'cancer'
p4030
aS'had'
p4031
aS'father'
p4032
aasS'who history mother'
p4033
(lp4034
(lp4035
S'who'
p4036
aS'history'
p4037
aS'mother'
p4038
aasS'states or'
p4039
(lp4040
(lp4041
S'states'
p4042
aS'or'
p4043
aasS'sister brother age'
p4044
(lp4045
(lp4046
S'sister'
p4047
aS'brother'
p4048
aS'age'
p4049
aasS'significant father'
p4050
(lp4051
(lp4052
S'significant'
p4053
aS'father'
p4054
aasS'cancer had her'
p4055
(lp4056
(lp4057
S'cancer'
p4058
aS'had'
p4059
aS'her'
p4060
aasS'having mother'
p4061
(lp4062
(lp4063
S'having'
p4064
aS'mother'
p4065
aasS'present illness this history'
p4066
(lp4067
(lp4068
S'present'
p4069
aS'illness'
p4070
aS'this'
p4071
aS'history'
p4072
aasS'family history mother'
p4073
(lp4074
(lp4075
S'family'
p4076
aS'history'
p4077
aS'mother'
p4078
aasS'informed consent'
p4079
(lp4080
(lp4081
S'informed'
p4082
aS'consent'
p4083
aasS'coronary family history'
p4084
(lp4085
(lp4086
S'coronary'
p4087
aS'family'
p4088
aS'history'
p4089
aa(lp4090
S'coronary'
p4091
aS'family'
p4092
aasS'back her'
p4093
(lp4094
(lp4095
S'back'
p4096
aS'her'
p4097
aasS'care his'
p4098
(lp4099
(lp4100
S'care'
p4101
aS'his'
p4102
aasS'side family'
p4103
(lp4104
(lp4105
S'side'
p4106
aS'family'
p4107
aasS'when her'
p4108
(lp4109
(lp4110
S'when'
p4111
aS'her'
p4112
aasS'white this his mother'
p4113
(lp4114
(lp4115
S'white'
p4116
aS'this'
p4117
aS'his'
p4118
aa(lp4119
S'white'
p4120
aS'this'
p4121
aasS'no patient'
p4122
(lp4123
(lp4124
S'no'
p4125
aS'patient'
p4126
aasS'years brother'
p4127
(lp4128
(lp4129
S'years'
p4130
aS'brother'
p4131
aasS'side she mother'
p4132
(lp4133
(lp4134
S'side'
p4135
aS'she'
p4136
aS'mother'
p4137
aa(lp4138
S'side'
p4139
aS'she'
p4140
aasS'past medical'
p4141
(lp4142
(lp4143
S'past'
p4144
aS'medical'
p4145
aasS'home had she her'
p4146
(lp4147
(lp4148
S'home'
p4149
aS'had'
p4150
aasS'stroke history mother'
p4151
(lp4152
(lp4153
S'stroke'
p4154
aS'history'
p4155
aS'mother'
p4156
aasS'medical family history'
p4157
(lp4158
(lp4159
S'medical'
p4160
aS'family'
p4161
aS'history'
p4162
aa(lp4163
S'medical'
p4164
aS'family'
p4165
aasS'cancer age'
p4166
(lp4167
(lp4168
S'cancer'
p4169
aS'age'
p4170
aasS'59 age'
p4171
(lp4172
(lp4173
S'59'
p4174
aS'age'
p4175
aasS'his mother'
p4176
(lp4177
(lp4178
S'his'
p4179
aS'mother'
p4180
aasS'htn fhx'
p4181
(lp4182
(lp4183
S'htn'
p4184
aS'fhx'
p4185
aasS'takes patient'
p4186
(lp4187
(lp4188
S'takes'
p4189
aS'patient'
p4190
aasS'two she'
p4191
(lp4192
(lp4193
S'two'
p4194
aS'she'
p4195
aasS'brother had she'
p4196
(lp4197
(lp4198
S'brother'
p4199
aS'had'
p4200
aS'she'
p4201
aasS'died father her'
p4202
(lp4203
(lp4204
S'died'
p4205
aS'father'
p4206
aS'her'
p4207
aasS'age family mother'
p4208
(lp4209
(lp4210
S'age'
p4211
aS'family'
p4212
aS'mother'
p4213
aasS'lives patient her'
p4214
(lp4215
(lp4216
S'lives'
p4217
aS'patient'
p4218
aS'her'
p4219
aasS'i mom'
p4220
(lp4221
(lp4222
g1136
aS'mom'
p4223
aasS'tumor brain brother'
p4224
(lp4225
(lp4226
S'tumor'
p4227
aS'brain'
p4228
aasS'breast daughter'
p4229
(lp4230
(lp4231
S'breast'
p4232
aS'daughter'
p4233
aasS'70 age'
p4234
(lp4235
(lp4236
S'70'
p4237
aS'age'
p4238
aasS'daughter had'
p4239
(lp4240
(lp4241
S'daughter'
p4242
aS'had'
p4243
aasS'states been she'
p4244
(lp4245
(lp4246
S'states'
p4247
aS'been'
p4248
aS'she'
p4249
aasS'breast cancer mother'
p4250
(lp4251
(lp4252
S'breast'
p4253
aS'cancer'
p4254
aS'mother'
p4255
aasS'lives who'
p4256
(lp4257
(lp4258
S'lives'
p4259
aS'who'
p4260
aasS'brother age who'
p4261
(lp4262
(lp4263
S'brother'
p4264
aS'age'
p4265
aS'who'
p4266
aasS'very i'
p4267
(lp4268
(lp4269
S'very'
p4270
ag1136
aasS'failure mother'
p4271
(lp4272
(lp4273
S'failure'
p4274
aS'mother'
p4275
aasS'night states'
p4276
(lp4277
(lp4278
S'night'
p4279
aS'states'
p4280
aasS'breast history'
p4281
(lp4282
(lp4283
S'breast'
p4284
aS'history'
p4285
aasS'i mother'
p4286
(lp4287
(lp4288
g1136
aS'mother'
p4289
aasS'over daughter she had her'
p4290
(lp4291
(lp4292
S'over'
p4293
aS'daughter'
p4294
aS'her'
p4295
aS'had'
p4296
aa(lp4297
S'over'
p4298
aS'daughter'
p4299
aS'her'
p4300
aasS'when years'
p4301
(lp4302
(lp4303
S'when'
p4304
aS'years'
p4305
aasS'brother patient history'
p4306
(lp4307
(lp4308
S'brother'
p4309
aS'patient'
p4310
aS'history'
p4311
aasS'breast family her'
p4312
(lp4313
(lp4314
S'breast'
p4315
aS'family'
p4316
aS'her'
p4317
aasS'abuse alcohol'
p4318
(lp4319
(lp4320
S'abuse'
p4321
aS'alcohol'
p4322
aasS'died who'
p4323
(lp4324
(lp4325
S'died'
p4326
aS'who'
p4327
aasS'sister her'
p4328
(lp4329
(lp4330
S'sister'
p4331
aS'her'
p4332
aasS'stroke died father'
p4333
(lp4334
(lp4335
S'stroke'
p4336
aS'died'
p4337
aS'father'
p4338
aasS'old died mother'
p4339
(lp4340
(lp4341
S'old'
p4342
aS'died'
p4343
aS'mother'
p4344
aasS'both family'
p4345
(lp4346
(lp4347
S'both'
p4348
aS'family'
p4349
aasS'fhx mother'
p4350
(lp4351
(lp4352
S'fhx'
p4353
aS'mother'
p4354
aasS'not mother'
p4355
(lp4356
(lp4357
S'not'
p4358
aS'mother'
p4359
aasS'grandmother cancer'
p4360
(lp4361
(lp4362
S'grandmother'
p4363
aS'cancer'
p4364
aasS'about but she'
p4365
(lp4366
(lp4367
S'about'
p4368
aS'but'
p4369
aS'she'
p4370
aa(lp4371
S'about'
p4372
aS'but'
p4373
aasS'artery disease brother coronary'
p4374
(lp4375
(lp4376
S'artery'
p4377
aS'disease'
p4378
aS'brother'
p4379
aS'coronary'
p4380
aa(lp4381
S'artery'
p4382
aS'disease'
p4383
aS'brother'
p4384
aasS'associated patient history'
p4385
(lp4386
(lp4387
S'associated'
p4388
aS'patient'
p4389
aS'history'
p4390
aa(lp4391
S'associated'
p4392
aS'patient'
p4393
aasS'pregnancy history mother'
p4394
(lp4395
(lp4396
S'pregnancy'
p4397
aS'history'
p4398
aS'mother'
p4399
aa(lp4400
S'pregnancy'
p4401
aS'history'
p4402
aasS'many had'
p4403
(lp4404
(lp4405
S'many'
p4406
aS'had'
p4407
aasS'70 mother'
p4408
(lp4409
(lp4410
S'70'
p4411
aS'mother'
p4412
aasS'disease have'
p4413
(lp4414
(lp4415
S'disease'
p4416
aS'have'
p4417
aasS'mi died mother'
p4418
(lp4419
(lp4420
S'mi'
p4421
aS'died'
p4422
aS'mother'
p4423
aasS'failure her'
p4424
(lp4425
(lp4426
S'failure'
p4427
aS'her'
p4428
aasS'history she'
p4429
(lp4430
(lp4431
S'history'
p4432
aS'she'
p4433
aasS'heart died her'
p4434
(lp4435
(lp4436
S'heart'
p4437
aS'died'
p4438
aS'her'
p4439
aasS'heart disease'
p4440
(lp4441
(lp4442
S'heart'
p4443
aS'disease'
p4444
aasS'15 two'
p4445
(lp4446
(lp4447
S'15'
p4448
aS'two'
p4449
aasS'home mother'
p4450
(lp4451
(lp4452
S'home'
p4453
aS'mother'
p4454
aasS'age she her'
p4455
(lp4456
(lp4457
S'age'
p4458
aS'she'
p4459
aS'her'
p4460
aasS'died father history'
p4461
(lp4462
(lp4463
S'died'
p4464
aS'father'
p4465
aS'history'
p4466
aasS'mi fhx age died'
p4467
(lp4468
(lp4469
S'mi'
p4470
aS'fhx'
p4471
aS'age'
p4472
aS'died'
p4473
aa(lp4474
S'mi'
p4475
aS'fhx'
p4476
aS'age'
p4477
aasS'brother she'
p4478
(lp4479
(lp4480
S'brother'
p4481
aS'she'
p4482
aasS'medicine general'
p4483
(lp4484
(lp4485
S'medicine'
p4486
aS'general'
p4487
aasS'age patient mother'
p4488
(lp4489
(lp4490
S'age'
p4491
aS'patient'
p4492
aS'mother'
p4493
aasS'social patient mother history'
p4494
(lp4495
(lp4496
S'social'
p4497
aS'patient'
p4498
aS'mother'
p4499
aS'history'
p4500
aa(lp4501
S'social'
p4502
aS'patient'
p4503
aS'mother'
p4504
aasS'states she her'
p4505
(lp4506
(lp4507
S'states'
p4508
aS'she'
p4509
aS'her'
p4510
aasS'illness patient history'
p4511
(lp4512
(lp4513
S'illness'
p4514
aS'patient'
p4515
aS'history'
p4516
aa(lp4517
S'illness'
p4518
aS'patient'
p4519
aasS'report this mother'
p4520
(lp4521
(lp4522
S'report'
p4523
aS'this'
p4524
aasS'son her'
p4525
(lp4526
(lp4527
S'son'
p4528
aS'her'
p4529
aasS'no there'
p4530
(lp4531
(lp4532
S'no'
p4533
aS'there'
p4534
aasS'two brother'
p4535
(lp4536
(lp4537
S'two'
p4538
aS'brother'
p4539
aasS'wellchild check mother'
p4540
(lp4541
(lp4542
S'wellchild'
p4543
aS'check'
p4544
aS'mother'
p4545
aa(lp4546
S'wellchild'
p4547
aS'check'
p4548
aa(lp4549
S'wellchild'
p4550
aS'mother'
p4551
aasS'heart family father history'
p4552
(lp4553
(lp4554
S'heart'
p4555
aS'family'
p4556
aS'father'
p4557
aS'history'
p4558
aa(lp4559
S'heart'
p4560
aS'family'
p4561
aS'father'
p4562
aasS'pregnancy mother'
p4563
(lp4564
(lp4565
S'pregnancy'
p4566
aS'mother'
p4567
aasS'age history her'
p4568
(lp4569
(lp4570
S'age'
p4571
aS'history'
p4572
aS'her'
p4573
aasS'cancer died father'
p4574
(lp4575
(lp4576
S'cancer'
p4577
aS'died'
p4578
aS'father'
p4579
aasS'cancer her mother'
p4580
(lp4581
(lp4582
S'cancer'
p4583
aS'her'
p4584
aS'mother'
p4585
aasS'well been mother'
p4586
(lp4587
(lp4588
S'well'
p4589
aS'been'
p4590
aasS'psychiatric patient'
p4591
(lp4592
(lp4593
S'psychiatric'
p4594
aS'patient'
p4595
aasS'alcohol who she'
p4596
(lp4597
(lp4598
S'alcohol'
p4599
aS'who'
p4600
aS'she'
p4601
aa(lp4602
S'alcohol'
p4603
aS'who'
p4604
aasS'both sister history'
p4605
(lp4606
(lp4607
S'both'
p4608
aS'sister'
p4609
aasS'present illness'
p4610
(lp4611
(lp4612
S'present'
p4613
aS'illness'
p4614
aasS'so she'
p4615
(lp4616
(lp4617
S'so'
p4618
aS'she'
p4619
aasS'been daughter she her'
p4620
(lp4621
(lp4622
S'been'
p4623
aS'daughter'
p4624
aS'she'
p4625
aS'her'
p4626
aa(lp4627
S'been'
p4628
aS'daughter'
p4629
aS'she'
p4630
aa(lp4631
S'been'
p4632
aS'daughter'
p4633
aS'her'
p4634
aa(lp4635
S'been'
p4636
aS'daughter'
p4637
aasS'cancer family patient history'
p4638
(lp4639
(lp4640
S'cancer'
p4641
aS'family'
p4642
aS'patient'
p4643
aS'history'
p4644
aa(lp4645
S'cancer'
p4646
aS'family'
p4647
aS'patient'
p4648
aasS'would or her'
p4649
(lp4650
(lp4651
S'would'
p4652
aS'or'
p4653
aasS'here his mother'
p4654
(lp4655
(lp4656
S'here'
p4657
aS'his'
p4658
aS'mother'
p4659
aasS'born mother'
p4660
(lp4661
(lp4662
S'born'
p4663
aS'mother'
p4664
aasS'family father history'
p4665
(lp4666
(lp4667
S'family'
p4668
aS'father'
p4669
aS'history'
p4670
aasS'next day'
p4671
(lp4672
(lp4673
S'next'
p4674
aS'day'
p4675
aasS'day her'
p4676
(lp4677
(lp4678
S'day'
p4679
aS'her'
p4680
aasS'depression hypertension mother'
p4681
(lp4682
(lp4683
S'depression'
p4684
aS'hypertension'
p4685
aS'mother'
p4686
aasS'artery disease family coronary history'
p4687
(lp4688
(lp4689
S'artery'
p4690
aS'disease'
p4691
aS'family'
p4692
aS'coronary'
p4693
aS'history'
p4694
aa(lp4695
S'artery'
p4696
aS'disease'
p4697
aS'family'
p4698
aS'coronary'
p4699
aa(lp4700
S'artery'
p4701
aS'disease'
p4702
aS'family'
p4703
aS'history'
p4704
aa(lp4705
S'artery'
p4706
aS'disease'
p4707
aS'family'
p4708
aasS'very well'
p4709
(lp4710
(lp4711
S'very'
p4712
aS'well'
p4713
aasS'both brother history'
p4714
(lp4715
(lp4716
S'both'
p4717
aS'brother'
p4718
aS'history'
p4719
aasS'died family history mother'
p4720
(lp4721
(lp4722
S'died'
p4723
aS'family'
p4724
aS'history'
p4725
aS'mother'
p4726
aasS'ear this'
p4727
(lp4728
(lp4729
S'ear'
p4730
aS'this'
p4731
aasS'family history her'
p4732
(lp4733
(lp4734
S'family'
p4735
aS'history'
p4736
aS'her'
p4737
aasS'states she mother'
p4738
(lp4739
(lp4740
S'states'
p4741
aS'she'
p4742
aS'mother'
p4743
aasS'week out mom'
p4744
(lp4745
(lp4746
S'week'
p4747
aS'out'
p4748
aasS'sons healthy two who'
p4749
(lp4750
(lp4751
S'sons'
p4752
aS'healthy'
p4753
aS'two'
p4754
aS'who'
p4755
aa(lp4756
S'sons'
p4757
aS'healthy'
p4758
aS'two'
p4759
aa(lp4760
S'sons'
p4761
aS'healthy'
p4762
aS'who'
p4763
aa(lp4764
S'sons'
p4765
aS'healthy'
p4766
aasS'mi fhx mother died'
p4767
(lp4768
(lp4769
S'mi'
p4770
aS'fhx'
p4771
aS'mother'
p4772
aS'died'
p4773
aa(lp4774
S'mi'
p4775
aS'fhx'
p4776
aS'mother'
p4777
aasS'maternal her'
p4778
(lp4779
(lp4780
S'maternal'
p4781
aS'her'
p4782
aasS'renal father'
p4783
(lp4784
(lp4785
S'renal'
p4786
aS'father'
p4787
aasS'no or'
p4788
(lp4789
(lp4790
S'no'
p4791
aS'or'
p4792
aasS'since been she her'
p4793
(lp4794
(lp4795
S'since'
p4796
aS'been'
p4797
aS'she'
p4798
aasS'no or patient'
p4799
(lp4800
(lp4801
S'no'
p4802
aS'or'
p4803
aS'patient'
p4804
aasS'diabetes family father history'
p4805
(lp4806
(lp4807
S'diabetes'
p4808
aS'family'
p4809
aS'father'
p4810
aS'history'
p4811
aasS'but his'
p4812
(lp4813
(lp4814
S'but'
p4815
aS'his'
p4816
aasS'no history'
p4817
(lp4818
(lp4819
S'no'
p4820
aS'history'
p4821
aasS'died family father history'
p4822
(lp4823
(lp4824
S'died'
p4825
aS'family'
p4826
aS'father'
p4827
aS'history'
p4828
aasS'technique description obtained informed consent patient'
p4829
(lp4830
(lp4831
S'technique'
p4832
aS'description'
p4833
aS'obtained'
p4834
aS'informed'
p4835
aS'consent'
p4836
aS'patient'
p4837
aa(lp4838
S'technique'
p4839
aS'description'
p4840
aS'obtained'
p4841
aS'informed'
p4842
aS'consent'
p4843
aa(lp4844
S'technique'
p4845
aS'description'
p4846
aS'obtained'
p4847
aS'informed'
p4848
aS'patient'
p4849
aa(lp4850
S'technique'
p4851
aS'description'
p4852
aS'obtained'
p4853
aS'informed'
p4854
aa(lp4855
S'technique'
p4856
aS'description'
p4857
aS'obtained'
p4858
aS'consent'
p4859
aS'patient'
p4860
aa(lp4861
S'technique'
p4862
aS'description'
p4863
aS'obtained'
p4864
aS'consent'
p4865
aa(lp4866
S'technique'
p4867
aS'description'
p4868
aS'obtained'
p4869
aS'patient'
p4870
aa(lp4871
S'technique'
p4872
aS'description'
p4873
aS'obtained'
p4874
aa(lp4875
S'technique'
p4876
aS'description'
p4877
aS'informed'
p4878
aS'consent'
p4879
aS'patient'
p4880
aa(lp4881
S'technique'
p4882
aS'description'
p4883
aS'informed'
p4884
aS'consent'
p4885
aa(lp4886
S'technique'
p4887
aS'description'
p4888
aS'informed'
p4889
aS'patient'
p4890
aa(lp4891
S'technique'
p4892
aS'description'
p4893
aS'informed'
p4894
aa(lp4895
S'technique'
p4896
aS'description'
p4897
aS'consent'
p4898
aS'patient'
p4899
aa(lp4900
S'technique'
p4901
aS'description'
p4902
aS'consent'
p4903
aa(lp4904
S'technique'
p4905
aS'description'
p4906
aS'patient'
p4907
aa(lp4908
S'technique'
p4909
aS'description'
p4910
aasS'dm mother'
p4911
(lp4912
(lp4913
S'dm'
p4914
aS'mother'
p4915
aasS'stroke hypertension father'
p4916
(lp4917
(lp4918
S'stroke'
p4919
aS'hypertension'
p4920
aS'father'
p4921
aa(lp4922
S'stroke'
p4923
aS'hypertension'
p4924
aasS'died age father'
p4925
(lp4926
(lp4927
S'died'
p4928
aS'age'
p4929
aS'father'
p4930
aasS'sons two who'
p4931
(lp4932
(lp4933
S'sons'
p4934
aS'two'
p4935
aS'who'
p4936
aasS'associated grandmother family history'
p4937
(lp4938
(lp4939
S'associated'
p4940
aS'grandmother'
p4941
aasS'transcription patient report sample medical'
p4942
(lp4943
(lp4944
S'transcription'
p4945
aS'patient'
p4946
aS'report'
p4947
aS'medical'
p4948
aa(lp4949
S'transcription'
p4950
aS'patient'
p4951
aS'report'
p4952
aa(lp4953
S'transcription'
p4954
aS'patient'
p4955
aS'medical'
p4956
aa(lp4957
S'transcription'
p4958
aS'patient'
p4959
aasS'today patient'
p4960
(lp4961
(lp4962
S'today'
p4963
aS'patient'
p4964
aasS'so mother'
p4965
(lp4966
(lp4967
S'so'
p4968
aS'mother'
p4969
aasS'depression hypertension'
p4970
(lp4971
(lp4972
S'depression'
p4973
aS'hypertension'
p4974
aasS'cancer had'
p4975
(lp4976
(lp4977
S'cancer'
p4978
aS'had'
p4979
aasS'stroke age'
p4980
(lp4981
(lp4982
S'stroke'
p4983
aS'age'
p4984
aasS'died brother age'
p4985
(lp4986
(lp4987
S'died'
p4988
aS'brother'
p4989
aS'age'
p4990
aasS'we well'
p4991
(lp4992
(lp4993
S'we'
p4994
aS'well'
p4995
aasS'had history mother'
p4996
(lp4997
(lp4998
S'had'
p4999
aS'history'
p5000
aS'mother'
p5001
aasS'died family'
p5002
(lp5003
(lp5004
S'died'
p5005
aS'family'
p5006
aasS'because there'
p5007
(lp5008
(lp5009
S'because'
p5010
aS'there'
p5011
aasS'alcohol her'
p5012
(lp5013
(lp5014
S'alcohol'
p5015
aS'her'
p5016
aasS'male white'
p5017
(lp5018
(lp5019
S'male'
p5020
aS'white'
p5021
aasS'both two years'
p5022
(lp5023
(lp5024
S'both'
p5025
aS'two'
p5026
aS'years'
p5027
aasS'disease her'
p5028
(lp5029
(lp5030
S'disease'
p5031
aS'her'
p5032
aasS'heart mother'
p5033
(lp5034
(lp5035
S'heart'
p5036
aS'mother'
p5037
aasS'son his'
p5038
(lp5039
(lp5040
S'son'
p5041
aS'his'
p5042
aasS'here his'
p5043
(lp5044
(lp5045
S'here'
p5046
aS'his'
p5047
aasS'sample medical'
p5048
(lp5049
(lp5050
S'sample'
p5051
aS'medical'
p5052
aasS'years had'
p5053
(lp5054
(lp5055
S'years'
p5056
aS'had'
p5057
aasS'problems well'
p5058
(lp5059
(lp5060
S'problems'
p5061
aS'well'
p5062
aasS'child well who mother'
p5063
(lp5064
(lp5065
S'child'
p5066
aS'well'
p5067
aS'who'
p5068
aS'mother'
p5069
aa(lp5070
S'child'
p5071
aS'well'
p5072
aS'who'
p5073
aa(lp5074
S'child'
p5075
aS'well'
p5076
aS'mother'
p5077
aa(lp5078
S'child'
p5079
aS'well'
p5080
aasS'family history her mother'
p5081
(lp5082
(lp5083
S'family'
p5084
aS'history'
p5085
aS'her'
p5086
aS'mother'
p5087
aasS'office mother his'
p5088
(lp5089
(lp5090
S'office'
p5091
aS'mother'
p5092
aS'his'
p5093
aa(lp5094
S'office'
p5095
aS'mother'
p5096
aasS'no family history'
p5097
(lp5098
(lp5099
S'no'
p5100
aS'family'
p5101
aS'history'
p5102
aa(lp5103
S'no'
p5104
aS'family'
p5105
aasS'this history'
p5106
(lp5107
(lp5108
S'this'
p5109
aS'history'
p5110
aasS'disorder mother'
p5111
(lp5112
(lp5113
S'disorder'
p5114
aS'mother'
p5115
aasS'old age'
p5116
(lp5117
(lp5118
S'old'
p5119
aS'age'
p5120
aasS'brothers sisters no'
p5121
(lp5122
(lp5123
S'brothers'
p5124
aS'sisters'
p5125
aS'no'
p5126
aa(lp5127
S'brothers'
p5128
aS'no'
p5129
aasS'had patient mother'
p5130
(lp5131
(lp5132
S'had'
p5133
aS'patient'
p5134
aS'mother'
p5135
aasS'subjective transcription report sample medical'
p5136
(lp5137
(lp5138
S'subjective'
p5139
aS'transcription'
p5140
aS'report'
p5141
aS'sample'
p5142
aS'medical'
p5143
aa(lp5144
S'subjective'
p5145
aS'transcription'
p5146
aS'report'
p5147
aS'sample'
p5148
aa(lp5149
S'subjective'
p5150
aS'transcription'
p5151
aS'report'
p5152
aS'medical'
p5153
aa(lp5154
S'subjective'
p5155
aS'transcription'
p5156
aS'report'
p5157
aa(lp5158
S'subjective'
p5159
aS'transcription'
p5160
aS'sample'
p5161
aS'medical'
p5162
aa(lp5163
S'subjective'
p5164
aS'transcription'
p5165
aS'sample'
p5166
aa(lp5167
S'subjective'
p5168
aS'transcription'
p5169
aS'medical'
p5170
aa(lp5171
S'subjective'
p5172
aS'transcription'
p5173
aa(lp5174
S'subjective'
p5175
aS'report'
p5176
aS'sample'
p5177
aS'medical'
p5178
aa(lp5179
S'subjective'
p5180
aS'report'
p5181
aS'sample'
p5182
aa(lp5183
S'subjective'
p5184
aS'report'
p5185
aS'medical'
p5186
aa(lp5187
S'subjective'
p5188
aS'report'
p5189
aa(lp5190
S'subjective'
p5191
aS'sample'
p5192
aS'medical'
p5193
aa(lp5194
S'subjective'
p5195
aS'sample'
p5196
aa(lp5197
S'subjective'
p5198
aS'medical'
p5199
aasS'disease father'
p5200
(lp5201
(lp5202
S'disease'
p5203
aS'father'
p5204
aasS'male present this illness history his mother'
p5205
(lp5206
(lp5207
S'male'
p5208
aS'present'
p5209
aS'this'
p5210
aS'illness'
p5211
aS'history'
p5212
aa(lp5213
S'male'
p5214
aS'present'
p5215
aS'this'
p5216
aS'illness'
p5217
aa(lp5218
S'male'
p5219
aS'present'
p5220
aS'this'
p5221
aS'history'
p5222
aa(lp5223
S'male'
p5224
aS'present'
p5225
aS'this'
p5226
aasS'mom patient'
p5227
(lp5228
(lp5229
S'mom'
p5230
aS'patient'
p5231
aasS'medical history'
p5232
(lp5233
(lp5234
S'medical'
p5235
aS'history'
p5236
aasS'today transcription report sample medical patient'
p5237
(lp5238
(lp5239
S'today'
p5240
aS'transcription'
p5241
aS'report'
p5242
aS'patient'
p5243
aa(lp5244
S'today'
p5245
aS'transcription'
p5246
aS'report'
p5247
aa(lp5248
S'today'
p5249
aS'transcription'
p5250
aS'patient'
p5251
aa(lp5252
S'today'
p5253
aS'transcription'
p5254
aasS'significant who family'
p5255
(lp5256
(lp5257
S'significant'
p5258
aS'who'
p5259
aS'family'
p5260
aa(lp5261
S'significant'
p5262
aS'who'
p5263
aasS'obtained patient informed consent'
p5264
(lp5265
(lp5266
S'obtained'
p5267
aS'patient'
p5268
aS'informed'
p5269
aS'consent'
p5270
aa(lp5271
S'obtained'
p5272
aS'patient'
p5273
aS'informed'
p5274
aa(lp5275
S'obtained'
p5276
aS'patient'
p5277
aS'consent'
p5278
aa(lp5279
S'obtained'
p5280
aS'patient'
p5281
aasS'reports family mother'
p5282
(lp5283
(lp5284
S'reports'
p5285
aS'family'
p5286
aS'mother'
p5287
aasS'very she'
p5288
(lp5289
(lp5290
S'very'
p5291
aS'she'
p5292
aasS'or sister'
p5293
(lp5294
(lp5295
S'or'
p5296
aS'sister'
p5297
aasS'alive old'
p5298
(lp5299
(lp5300
S'alive'
p5301
aS'old'
p5302
aasS'father patient mother'
p5303
(lp5304
(lp5305
S'father'
p5306
aS'patient'
p5307
aS'mother'
p5308
aasS'80 age father'
p5309
(lp5310
(lp5311
S'80'
p5312
aS'age'
p5313
aS'father'
p5314
aasS'cancer died history mother'
p5315
(lp5316
(lp5317
S'cancer'
p5318
aS'died'
p5319
aS'history'
p5320
aS'mother'
p5321
aasS'years died'
p5322
(lp5323
(lp5324
S'years'
p5325
aS'died'
p5326
aasS'present this'
p5327
(lp5328
(lp5329
S'present'
p5330
aS'this'
p5331
aasS'both father mother'
p5332
(lp5333
(lp5334
S'both'
p5335
aS'father'
p5336
aS'mother'
p5337
aasS'name description sample'
p5338
(lp5339
(lp5340
S'name'
p5341
aS'description'
p5342
aS'sample'
p5343
aa(lp5344
S'name'
p5345
aS'description'
p5346
aa(lp5347
S'name'
p5348
aS'sample'
p5349
aasS'breast cancer patient'
p5350
(lp5351
(lp5352
S'breast'
p5353
aS'cancer'
p5354
aS'patient'
p5355
aasS'over had'
p5356
(lp5357
(lp5358
S'over'
p5359
aS'had'
p5360
aasS'siblings age brother'
p5361
(lp5362
(lp5363
S'siblings'
p5364
aS'age'
p5365
aS'brother'
p5366
aa(lp5367
S'siblings'
p5368
aS'age'
p5369
aasS'two cancer'
p5370
(lp5371
(lp5372
S'two'
p5373
aS'cancer'
p5374
aasS'breast patient'
p5375
(lp5376
(lp5377
S'breast'
p5378
aS'patient'
p5379
aasS'reports mother'
p5380
(lp5381
(lp5382
S'reports'
p5383
aS'mother'
p5384
aasS'one sister'
p5385
(lp5386
(lp5387
S'one'
p5388
aS'sister'
p5389
aasS'lives her mother'
p5390
(lp5391
(lp5392
S'lives'
p5393
aS'her'
p5394
aS'mother'
p5395
aasS'lives his'
p5396
(lp5397
(lp5398
S'lives'
p5399
aS'his'
p5400
aasS'wellchild here check mother'
p5401
(lp5402
(lp5403
S'wellchild'
p5404
aS'here'
p5405
aS'check'
p5406
aS'mother'
p5407
aa(lp5408
S'wellchild'
p5409
aS'here'
p5410
aS'check'
p5411
aa(lp5412
S'wellchild'
p5413
aS'here'
p5414
aS'mother'
p5415
aa(lp5416
S'wellchild'
p5417
aS'here'
p5418
aasS't home'
p5419
(lp5420
(lp5421
S't'
p5422
aS'home'
p5423
aasS'know not'
p5424
(lp5425
(lp5426
S'know'
p5427
aS'not'
p5428
aasS'siblings brother'
p5429
(lp5430
(lp5431
S'siblings'
p5432
aS'brother'
p5433
aasS'there had'
p5434
(lp5435
(lp5436
S'there'
p5437
aS'had'
p5438
aasS'grandmother her'
p5439
(lp5440
(lp5441
S'grandmother'
p5442
aS'her'
p5443
aasS'age she'
p5444
(lp5445
(lp5446
S'age'
p5447
aS'she'
p5448
aasS'coronary brother'
p5449
(lp5450
(lp5451
S'coronary'
p5452
aS'brother'
p5453
aasS'mi mother'
p5454
(lp5455
(lp5456
S'mi'
p5457
aS'mother'
p5458
aasS'here illness this history'
p5459
(lp5460
(lp5461
S'here'
p5462
aS'illness'
p5463
aS'this'
p5464
aa(lp5465
S'here'
p5466
aS'illness'
p5467
aasS'paternal cancer'
p5468
(lp5469
(lp5470
S'paternal'
p5471
aS'cancer'
p5472
aasS'psychiatric history'
p5473
(lp5474
(lp5475
S'psychiatric'
p5476
aS'history'
p5477
aasS'died family history her'
p5478
(lp5479
(lp5480
S'died'
p5481
aS'family'
p5482
aS'history'
p5483
aS'her'
p5484
aasS'old years mother'
p5485
(lp5486
(lp5487
S'old'
p5488
aS'years'
p5489
aS'mother'
p5490
aasS'cancer years family father'
p5491
(lp5492
(lp5493
S'cancer'
p5494
aS'years'
p5495
aS'father'
p5496
aasS'coronary disease brother'
p5497
(lp5498
(lp5499
S'coronary'
p5500
aS'disease'
p5501
aS'brother'
p5502
aasS'good who'
p5503
(lp5504
(lp5505
S'good'
p5506
aS'who'
p5507
aasS'male illness this history his mother'
p5508
(lp5509
(lp5510
S'male'
p5511
aS'illness'
p5512
aS'this'
p5513
aS'history'
p5514
aa(lp5515
S'male'
p5516
aS'illness'
p5517
aS'this'
p5518
aS'his'
p5519
aa(lp5520
S'male'
p5521
aS'illness'
p5522
aS'this'
p5523
aasS'mi fhx age father died'
p5524
(lp5525
(lp5526
S'mi'
p5527
aS'fhx'
p5528
aS'age'
p5529
aS'father'
p5530
aS'died'
p5531
aa(lp5532
S'mi'
p5533
aS'fhx'
p5534
aS'age'
p5535
aS'father'
p5536
aasS'coronary father history'
p5537
(lp5538
(lp5539
S'coronary'
p5540
aS'father'
p5541
aS'history'
p5542
aa(lp5543
S'coronary'
p5544
aS'father'
p5545
aasS'daughter age'
p5546
(lp5547
(lp5548
S'daughter'
p5549
aS'age'
p5550
aasS'other no'
p5551
(lp5552
(lp5553
S'other'
p5554
aS'no'
p5555
aasS'dm age mother'
p5556
(lp5557
(lp5558
S'dm'
p5559
aS'age'
p5560
aS'mother'
p5561
aa(lp5562
S'dm'
p5563
aS'age'
p5564
aasS'discussed mother'
p5565
(lp5566
(lp5567
S'discussed'
p5568
aS'mother'
p5569
aasS'good health'
p5570
(lp5571
(lp5572
S'good'
p5573
aS'health'
p5574
aasS'brothers two who'
p5575
(lp5576
(lp5577
S'brothers'
p5578
aS'two'
p5579
aS'who'
p5580
aasS'family patient'
p5581
(lp5582
(lp5583
S'family'
p5584
aS'patient'
p5585
aasS'about mother'
p5586
(lp5587
(lp5588
S'about'
p5589
aS'mother'
p5590
aasS'died brother'
p5591
(lp5592
(lp5593
S'died'
p5594
aS'brother'
p5595
aasS'years father'
p5596
(lp5597
(lp5598
S'years'
p5599
aS'father'
p5600
aasS'social patient history'
p5601
(lp5602
(lp5603
S'social'
p5604
aS'patient'
p5605
aS'history'
p5606
aa(lp5607
S'social'
p5608
aS'patient'
p5609
aasS'sister died'
p5610
(lp5611
(lp5612
S'sister'
p5613
aS'died'
p5614
aasS'coronary disease'
p5615
(lp5616
(lp5617
S'coronary'
p5618
aS'disease'
p5619
aasS'maternal mother'
p5620
(lp5621
(lp5622
S'maternal'
p5623
aS'mother'
p5624
aasS'maternal grandmother'
p5625
(lp5626
(lp5627
S'maternal'
p5628
aS'grandmother'
p5629
aasS'have two'
p5630
(lp5631
(lp5632
S'have'
p5633
aS'two'
p5634
aasS'breast cancer sister age'
p5635
(lp5636
(lp5637
S'breast'
p5638
aS'cancer'
p5639
aS'sister'
p5640
aS'age'
p5641
aa(lp5642
S'breast'
p5643
aS'cancer'
p5644
aS'sister'
p5645
aasS'about his'
p5646
(lp5647
(lp5648
S'about'
p5649
aS'his'
p5650
aasS'since she'
p5651
(lp5652
(lp5653
S'since'
p5654
aS'she'
p5655
aasS'two mother'
p5656
(lp5657
(lp5658
S'two'
p5659
aS'mother'
p5660
aasS'did not his'
p5661
(lp5662
(lp5663
S'did'
p5664
aS'not'
p5665
aS'his'
p5666
aasS'medical years'
p5667
(lp5668
(lp5669
S'medical'
p5670
aS'years'
p5671
aasS'having his'
p5672
(lp5673
(lp5674
S'having'
p5675
aS'his'
p5676
aasS'associated admits maternal family history patient'
p5677
(lp5678
(lp5679
S'associated'
p5680
aS'admits'
p5681
aS'maternal'
p5682
aS'patient'
p5683
aa(lp5684
S'associated'
p5685
aS'admits'
p5686
aS'maternal'
p5687
aasS'time had'
p5688
(lp5689
(lp5690
S'time'
p5691
aS'had'
p5692
aasS'age patient'
p5693
(lp5694
(lp5695
S'age'
p5696
aS'patient'
p5697
aasS'grandmother died'
p5698
(lp5699
(lp5700
S'grandmother'
p5701
aS'died'
p5702
aasS'heart family history'
p5703
(lp5704
(lp5705
S'heart'
p5706
aS'family'
p5707
aS'history'
p5708
aa(lp5709
S'heart'
p5710
aS'family'
p5711
aasS'reports she'
p5712
(lp5713
(lp5714
S'reports'
p5715
aS'she'
p5716
aasS'states been mother'
p5717
(lp5718
(lp5719
S'states'
p5720
aS'been'
p5721
aS'mother'
p5722
aasS'80 died age father'
p5723
(lp5724
(lp5725
S'80'
p5726
aS'died'
p5727
aS'age'
p5728
aS'father'
p5729
aa(lp5730
S'80'
p5731
aS'died'
p5732
aS'age'
p5733
aa(lp5734
S'80'
p5735
aS'died'
p5736
aS'father'
p5737
aa(lp5738
S'80'
p5739
aS'died'
p5740
aasS'family her'
p5741
(lp5742
(lp5743
S'family'
p5744
aS'her'
p5745
aasS'psychiatric medical mother'
p5746
(lp5747
(lp5748
S'psychiatric'
p5749
aS'medical'
p5750
aasS'who family history'
p5751
(lp5752
(lp5753
S'who'
p5754
aS'family'
p5755
aS'history'
p5756
aasS'time his'
p5757
(lp5758
(lp5759
S'time'
p5760
aS'his'
p5761
aasS'failure died her mother'
p5762
(lp5763
(lp5764
S'failure'
p5765
aS'died'
p5766
aS'her'
p5767
aS'mother'
p5768
aasS'diabetes family father'
p5769
(lp5770
(lp5771
S'diabetes'
p5772
aS'family'
p5773
aS'father'
p5774
aasS'coronary disease father history'
p5775
(lp5776
(lp5777
S'coronary'
p5778
aS'disease'
p5779
aS'father'
p5780
aS'history'
p5781
aa(lp5782
S'coronary'
p5783
aS'disease'
p5784
aS'father'
p5785
aasS'heart father'
p5786
(lp5787
(lp5788
S'heart'
p5789
aS'father'
p5790
aasS'patient her'
p5791
(lp5792
(lp5793
S'patient'
p5794
aS'her'
p5795
aasS'daughters two'
p5796
(lp5797
(lp5798
S'daughters'
p5799
aS'two'
p5800
aasS'male this his mother'
p5801
(lp5802
(lp5803
S'male'
p5804
aS'this'
p5805
aS'his'
p5806
aS'mother'
p5807
aa(lp5808
S'male'
p5809
aS'this'
p5810
aS'his'
p5811
aa(lp5812
S'male'
p5813
aS'this'
p5814
aS'mother'
p5815
aa(lp5816
S'male'
p5817
aS'this'
p5818
aasS'diabetes father'
p5819
(lp5820
(lp5821
S'diabetes'
p5822
aS'father'
p5823
aasS'lives history'
p5824
(lp5825
(lp5826
S'lives'
p5827
aS'history'
p5828
aasS'heart her mother'
p5829
(lp5830
(lp5831
S'heart'
p5832
aS'her'
p5833
aS'mother'
p5834
aasS'significant her'
p5835
(lp5836
(lp5837
S'significant'
p5838
aS'her'
p5839
aasS'brother had'
p5840
(lp5841
(lp5842
S'brother'
p5843
aS'had'
p5844
aasS'grandmother diabetes'
p5845
(lp5846
(lp5847
S'grandmother'
p5848
aS'diabetes'
p5849
aasS'also history'
p5850
(lp5851
(lp5852
S'also'
p5853
aS'history'
p5854
aasS'history mother'
p5855
(lp5856
(lp5857
S'history'
p5858
aS'mother'
p5859
aasS'died age family father history'
p5860
(lp5861
(lp5862
S'died'
p5863
aS'age'
p5864
aS'family'
p5865
aS'father'
p5866
aS'history'
p5867
aasS'breast age her'
p5868
(lp5869
(lp5870
S'breast'
p5871
aS'age'
p5872
aS'her'
p5873
aasS'consent patient'
p5874
(lp5875
(lp5876
S'consent'
p5877
aS'patient'
p5878
aasS'died brother age had'
p5879
(lp5880
(lp5881
S'died'
p5882
aS'brother'
p5883
aS'had'
p5884
aasS'cancer her'
p5885
(lp5886
(lp5887
S'cancer'
p5888
aS'her'
p5889
aasS'failure died'
p5890
(lp5891
(lp5892
S'failure'
p5893
aS'died'
p5894
aasS'died age family mother'
p5895
(lp5896
(lp5897
S'died'
p5898
aS'age'
p5899
aS'family'
p5900
aS'mother'
p5901
aasS'each mom'
p5902
(lp5903
(lp5904
S'each'
p5905
aS'mom'
p5906
aasS'artery disease coronary'
p5907
(lp5908
(lp5909
S'artery'
p5910
aS'disease'
p5911
aS'coronary'
p5912
aa(lp5913
S'artery'
p5914
aS'disease'
p5915
aasS'age family'
p5916
(lp5917
(lp5918
S'age'
p5919
aS'family'
p5920
aasS'heart have'
p5921
(lp5922
(lp5923
S'heart'
p5924
aS'have'
p5925
aasS'said but'
p5926
(lp5927
(lp5928
S'said'
p5929
aS'but'
p5930
aasS'died family father her'
p5931
(lp5932
(lp5933
S'died'
p5934
aS'family'
p5935
aS'father'
p5936
aS'her'
p5937
aasS'32 cancer died'
p5938
(lp5939
(lp5940
S'32'
p5941
aS'cancer'
p5942
aS'died'
p5943
aasS'being his'
p5944
(lp5945
(lp5946
S'being'
p5947
aS'his'
p5948
aasS'lives patient his'
p5949
(lp5950
(lp5951
S'lives'
p5952
aS'patient'
p5953
aS'his'
p5954
aasS'breast sister'
p5955
(lp5956
(lp5957
S'breast'
p5958
aS'sister'
p5959
aasS'medical age family history'
p5960
(lp5961
(lp5962
S'medical'
p5963
aS'age'
p5964
aS'family'
p5965
aS'history'
p5966
aa(lp5967
S'medical'
p5968
aS'age'
p5969
aS'family'
p5970
aa(lp5971
S'medical'
p5972
aS'age'
p5973
aS'history'
p5974
aa(lp5975
S'medical'
p5976
aS'age'
p5977
aasS'died age father her'
p5978
(lp5979
(lp5980
S'died'
p5981
aS'age'
p5982
aS'father'
p5983
aS'her'
p5984
aasS'type had'
p5985
(lp5986
(lp5987
S'type'
p5988
aS'had'
p5989
aasS'colon family'
p5990
(lp5991
(lp5992
S'colon'
p5993
aS'family'
p5994
aasS'old years who'
p5995
(lp5996
(lp5997
S'old'
p5998
aS'years'
p5999
aS'who'
p6000
aasS'old died age father'
p6001
(lp6002
(lp6003
S'old'
p6004
aS'died'
p6005
aS'age'
p6006
aS'father'
p6007
aasS'father history'
p6008
(lp6009
(lp6010
S'father'
p6011
aS'history'
p6012
aasS'if her'
p6013
(lp6014
(lp6015
S'if'
p6016
aS'her'
p6017
aasS'reports her'
p6018
(lp6019
(lp6020
S'reports'
p6021
aS'her'
p6022
aasS'informed patient consent'
p6023
(lp6024
(lp6025
S'informed'
p6026
aS'patient'
p6027
aS'consent'
p6028
aa(lp6029
S'informed'
p6030
aS'patient'
p6031
aasS'family she mother'
p6032
(lp6033
(lp6034
S'family'
p6035
aS'she'
p6036
aS'mother'
p6037
aasS'diabetes history'
p6038
(lp6039
(lp6040
S'diabetes'
p6041
aS'history'
p6042
aasS'illness this'
p6043
(lp6044
(lp6045
S'illness'
p6046
aS'this'
p6047
aasS'there his'
p6048
(lp6049
(lp6050
S'there'
p6051
aS'his'
p6052
aasS'family father her'
p6053
(lp6054
(lp6055
S'family'
p6056
aS'father'
p6057
aS'her'
p6058
aasS'cancer died family history mother'
p6059
(lp6060
(lp6061
S'cancer'
p6062
aS'died'
p6063
aS'family'
p6064
aS'history'
p6065
aS'mother'
p6066
aasS'family patient history'
p6067
(lp6068
(lp6069
S'family'
p6070
aS'patient'
p6071
aS'history'
p6072
aasS'male his'
p6073
(lp6074
(lp6075
S'male'
p6076
aS'his'
p6077
aasS'doing well'
p6078
(lp6079
(lp6080
S'doing'
p6081
aS'well'
p6082
aasS'living she'
p6083
(lp6084
(lp6085
S'living'
p6086
aS'she'
p6087
aasS'depression mother'
p6088
(lp6089
(lp6090
S'depression'
p6091
aS'mother'
p6092
aasS'since mother'
p6093
(lp6094
(lp6095
S'since'
p6096
aS'mother'
p6097
aasS'about years his mother'
p6098
(lp6099
(lp6100
S'about'
p6101
aS'years'
p6102
aS'his'
p6103
aS'mother'
p6104
aa(lp6105
S'about'
p6106
aS'years'
p6107
aS'mother'
p6108
aasS'similar symptoms'
p6109
(lp6110
(lp6111
S'similar'
p6112
aS'symptoms'
p6113
aasS'informed description consent patient'
p6114
(lp6115
(lp6116
S'informed'
p6117
aS'description'
p6118
aS'consent'
p6119
aS'patient'
p6120
aa(lp6121
S'informed'
p6122
aS'description'
p6123
aS'consent'
p6124
aa(lp6125
S'informed'
p6126
aS'description'
p6127
aS'patient'
p6128
aa(lp6129
S'informed'
p6130
aS'description'
p6131
aasS'past mother'
p6132
(lp6133
(lp6134
S'past'
p6135
aS'mother'
p6136
aasS'white medical'
p6137
(lp6138
(lp6139
S'white'
p6140
aS'medical'
p6141
aasS'side mother'
p6142
(lp6143
(lp6144
S'side'
p6145
aS'mother'
p6146
aasS'died age family history'
p6147
(lp6148
(lp6149
S'died'
p6150
aS'age'
p6151
aS'family'
p6152
aS'history'
p6153
aasS'here this mother'
p6154
(lp6155
(lp6156
S'here'
p6157
aS'this'
p6158
aS'mother'
p6159
aasS'died age mother'
p6160
(lp6161
(lp6162
S'died'
p6163
aS'age'
p6164
aS'mother'
p6165
aasS'obtained description informed consent patient'
p6166
(lp6167
(lp6168
S'obtained'
p6169
aS'description'
p6170
aS'informed'
p6171
aS'consent'
p6172
aS'patient'
p6173
aa(lp6174
S'obtained'
p6175
aS'description'
p6176
aS'informed'
p6177
aS'consent'
p6178
aa(lp6179
S'obtained'
p6180
aS'description'
p6181
aS'informed'
p6182
aS'patient'
p6183
aa(lp6184
S'obtained'
p6185
aS'description'
p6186
aS'informed'
p6187
aa(lp6188
S'obtained'
p6189
aS'description'
p6190
aS'consent'
p6191
aS'patient'
p6192
aa(lp6193
S'obtained'
p6194
aS'description'
p6195
aS'consent'
p6196
aa(lp6197
S'obtained'
p6198
aS'description'
p6199
aS'patient'
p6200
aa(lp6201
S'obtained'
p6202
aS'description'
p6203
aasS'today transcription mom report sample medical patient'
p6204
(lp6205
(lp6206
S'today'
p6207
aS'transcription'
p6208
aS'mom'
p6209
aS'report'
p6210
aS'patient'
p6211
aa(lp6212
S'today'
p6213
aS'transcription'
p6214
aS'mom'
p6215
aS'report'
p6216
aa(lp6217
S'today'
p6218
aS'transcription'
p6219
aS'mom'
p6220
aS'patient'
p6221
aa(lp6222
S'today'
p6223
aS'transcription'
p6224
aS'mom'
p6225
aasS'disease family history'
p6226
(lp6227
(lp6228
S'disease'
p6229
aS'family'
p6230
aS'history'
p6231
aa(lp6232
S'disease'
p6233
aS'family'
p6234
aasS'had family father'
p6235
(lp6236
(lp6237
S'had'
p6238
aS'family'
p6239
aS'father'
p6240
aasS'one she'
p6241
(lp6242
(lp6243
S'one'
p6244
aS'she'
p6245
aasS'use she'
p6246
(lp6247
(lp6248
S'use'
p6249
aS'she'
p6250
aasS'been had she her'
p6251
(lp6252
(lp6253
S'been'
p6254
aS'had'
p6255
aS'she'
p6256
aS'her'
p6257
aa(lp6258
S'been'
p6259
aS'had'
p6260
aS'she'
p6261
aa(lp6262
S'been'
p6263
aS'had'
p6264
aS'her'
p6265
aasS'male history his'
p6266
(lp6267
(lp6268
S'male'
p6269
aS'history'
p6270
aasS'no but'
p6271
(lp6272
(lp6273
S'no'
p6274
aS'but'
p6275
aasS'about been'
p6276
(lp6277
(lp6278
S'about'
p6279
aS'been'
p6280
aasS'died family history'
p6281
(lp6282
(lp6283
S'died'
p6284
aS'family'
p6285
aS'history'
p6286
aasS'brother patient'
p6287
(lp6288
(lp6289
S'brother'
p6290
aS'patient'
p6291
aasS'heart disease father'
p6292
(lp6293
(lp6294
S'heart'
p6295
aS'disease'
p6296
aS'father'
p6297
aasS'unknown father'
p6298
(lp6299
(lp6300
S'unknown'
p6301
aS'father'
p6302
aasS'does patient'
p6303
(lp6304
(lp6305
S'does'
p6306
aS'patient'
p6307
aasS'white his'
p6308
(lp6309
(lp6310
S'white'
p6311
aS'his'
p6312
aasS'father her'
p6313
(lp6314
(lp6315
S'father'
p6316
aS'her'
p6317
aasS'accident age father'
p6318
(lp6319
(lp6320
S'accident'
p6321
aS'age'
p6322
aS'father'
p6323
aa(lp6324
S'accident'
p6325
aS'age'
p6326
aa(lp6327
S'accident'
p6328
aS'father'
p6329
aasS'died age father history'
p6330
(lp6331
(lp6332
S'died'
p6333
aS'age'
p6334
aS'father'
p6335
aS'history'
p6336
aasS'both well history'
p6337
(lp6338
(lp6339
S'both'
p6340
aS'well'
p6341
aasS'stroke had'
p6342
(lp6343
(lp6344
S'stroke'
p6345
aS'had'
p6346
aasS'today his'
p6347
(lp6348
(lp6349
S'today'
p6350
aS'his'
p6351
aasS'well father'
p6352
(lp6353
(lp6354
S'well'
p6355
aS'father'
p6356
aasS'diabetes died'
p6357
(lp6358
(lp6359
S'diabetes'
p6360
aS'died'
p6361
aasS'stroke mother'
p6362
(lp6363
(lp6364
S'stroke'
p6365
aS'mother'
p6366
aasS'night mom'
p6367
(lp6368
(lp6369
S'night'
p6370
aS'mom'
p6371
aasS'80 age'
p6372
(lp6373
(lp6374
S'80'
p6375
aS'age'
p6376
aasS'type father'
p6377
(lp6378
(lp6379
S'type'
p6380
aS'father'
p6381
aasS'white illness history'
p6382
(lp6383
(lp6384
S'white'
p6385
aS'illness'
p6386
aS'history'
p6387
aa(lp6388
S'white'
p6389
aS'illness'
p6390
aasS'here mother'
p6391
(lp6392
(lp6393
S'here'
p6394
aS'mother'
p6395
aasS'heart died age father'
p6396
(lp6397
(lp6398
S'heart'
p6399
aS'died'
p6400
aS'age'
p6401
aS'father'
p6402
aa(lp6403
S'heart'
p6404
aS'died'
p6405
aS'father'
p6406
aasS'one two brother'
p6407
(lp6408
(lp6409
S'one'
p6410
aS'two'
p6411
aS'brother'
p6412
aasS'care no patient'
p6413
(lp6414
(lp6415
S'care'
p6416
aS'no'
p6417
aasS'brother she her'
p6418
(lp6419
(lp6420
S'brother'
p6421
aS'she'
p6422
aS'her'
p6423
aasS'also sister'
p6424
(lp6425
(lp6426
S'also'
p6427
aS'sister'
p6428
aasS'deceased father'
p6429
(lp6430
(lp6431
S'deceased'
p6432
aS'father'
p6433
aasS'heart died her mother'
p6434
(lp6435
(lp6436
S'heart'
p6437
aS'died'
p6438
aS'her'
p6439
aS'mother'
p6440
aasS'states her'
p6441
(lp6442
(lp6443
S'states'
p6444
aS'her'
p6445
aasS'age family history her'
p6446
(lp6447
(lp6448
S'age'
p6449
aS'family'
p6450
aS'history'
p6451
aS'her'
p6452
aasS'well her mother'
p6453
(lp6454
(lp6455
S'well'
p6456
aS'her'
p6457
aS'mother'
p6458
aasS'up she her'
p6459
(lp6460
(lp6461
S'up'
p6462
aS'she'
p6463
aasS'significant father history'
p6464
(lp6465
(lp6466
S'significant'
p6467
aS'father'
p6468
aS'history'
p6469
aasS'better mother'
p6470
(lp6471
(lp6472
S'better'
p6473
aS'mother'
p6474
aasS'upper been not had'
p6475
(lp6476
(lp6477
S'upper'
p6478
aS'not'
p6479
aS'had'
p6480
aa(lp6481
S'upper'
p6482
aS'not'
p6483
aa(lp6484
S'upper'
p6485
aS'had'
p6486
aasS'daughter patient'
p6487
(lp6488
(lp6489
S'daughter'
p6490
aS'patient'
p6491
aasS'stroke age father'
p6492
(lp6493
(lp6494
S'stroke'
p6495
aS'age'
p6496
aS'father'
p6497
aasS'dr her'
p6498
(lp6499
(lp6500
S'dr'
p6501
aS'her'
p6502
aasS'been she'
p6503
(lp6504
(lp6505
S'been'
p6506
aS'she'
p6507
aasS'diabetes her'
p6508
(lp6509
(lp6510
S'diabetes'
p6511
aS'her'
p6512
aasS'old mother'
p6513
(lp6514
(lp6515
S'old'
p6516
aS'mother'
p6517
aasS'breast cancer age'
p6518
(lp6519
(lp6520
S'breast'
p6521
aS'cancer'
p6522
aS'age'
p6523
aasS'social she history'
p6524
(lp6525
(lp6526
S'social'
p6527
aS'she'
p6528
aS'history'
p6529
aa(lp6530
S'social'
p6531
aS'she'
p6532
aasS'family she'
p6533
(lp6534
(lp6535
S'family'
p6536
aS'she'
p6537
aasS'sisters two'
p6538
(lp6539
(lp6540
S'sisters'
p6541
aS'two'
p6542
aasS'admits family history'
p6543
(lp6544
(lp6545
S'admits'
p6546
aS'family'
p6547
aS'history'
p6548
aa(lp6549
S'admits'
p6550
aS'family'
p6551
aasS'old died age mother'
p6552
(lp6553
(lp6554
S'old'
p6555
aS'died'
p6556
aS'age'
p6557
aS'mother'
p6558
aasS'medication his'
p6559
(lp6560
(lp6561
S'medication'
p6562
aS'his'
p6563
aasS'grandfather had'
p6564
(lp6565
(lp6566
S'grandfather'
p6567
aS'had'
p6568
aasS'father history her'
p6569
(lp6570
(lp6571
S'father'
p6572
aS'history'
p6573
aS'her'
p6574
aasS'brothers one'
p6575
(lp6576
(lp6577
S'brothers'
p6578
aS'one'
p6579
aasS'32 cancer age'
p6580
(lp6581
(lp6582
S'32'
p6583
aS'cancer'
p6584
aS'age'
p6585
aasS'father she her'
p6586
(lp6587
(lp6588
S'father'
p6589
aS'she'
p6590
aS'her'
p6591
aasS'pain ear'
p6592
(lp6593
(lp6594
S'pain'
p6595
aS'ear'
p6596
aasS'pain ear mom'
p6597
(lp6598
(lp6599
S'pain'
p6600
aS'ear'
p6601
aS'mom'
p6602
aa(lp6603
S'pain'
p6604
aS'mom'
p6605
aasS'being mother'
p6606
(lp6607
(lp6608
S'being'
p6609
aS'mother'
p6610
aasS'artery brother coronary'
p6611
(lp6612
(lp6613
S'artery'
p6614
aS'brother'
p6615
aS'coronary'
p6616
aa(lp6617
S'artery'
p6618
aS'brother'
p6619
aasS'coronary disease mother'
p6620
(lp6621
(lp6622
S'coronary'
p6623
aS'disease'
p6624
aS'mother'
p6625
aasS'medical patient'
p6626
(lp6627
(lp6628
S'medical'
p6629
aS'patient'
p6630
aasS'here this'
p6631
(lp6632
(lp6633
S'here'
p6634
aS'this'
p6635
aasS'79 died age'
p6636
(lp6637
(lp6638
S'79'
p6639
aS'died'
p6640
aS'age'
p6641
aa(lp6642
S'79'
p6643
aS'died'
p6644
aasS'no patient mother'
p6645
(lp6646
(lp6647
S'no'
p6648
aS'patient'
p6649
aS'mother'
p6650
aasS'32 age'
p6651
(lp6652
(lp6653
S'32'
p6654
aS'age'
p6655
aasS'white present this illness history his mother'
p6656
(lp6657
(lp6658
S'white'
p6659
aS'present'
p6660
aS'this'
p6661
aS'illness'
p6662
aS'history'
p6663
aa(lp6664
S'white'
p6665
aS'present'
p6666
aS'this'
p6667
aS'illness'
p6668
aa(lp6669
S'white'
p6670
aS'present'
p6671
aS'this'
p6672
aS'history'
p6673
aa(lp6674
S'white'
p6675
aS'present'
p6676
aS'this'
p6677
aasS'breast cancer age her'
p6678
(lp6679
(lp6680
S'breast'
p6681
aS'cancer'
p6682
aS'age'
p6683
aS'her'
p6684
aasS'who she'
p6685
(lp6686
(lp6687
S'who'
p6688
aS'she'
p6689
aasS'old died father'
p6690
(lp6691
(lp6692
S'old'
p6693
aS'died'
p6694
aS'father'
p6695
aasS'family father history her'
p6696
(lp6697
(lp6698
S'family'
p6699
aS'father'
p6700
aS'history'
p6701
aS'her'
p6702
aasS'daughter his'
p6703
(lp6704
(lp6705
S'daughter'
p6706
aS'his'
p6707
aasS'illness this history'
p6708
(lp6709
(lp6710
S'illness'
p6711
aS'this'
p6712
aS'history'
p6713
aasS'alive mother'
p6714
(lp6715
(lp6716
S'alive'
p6717
aS'mother'
p6718
aasS'good mother'
p6719
(lp6720
(lp6721
S'good'
p6722
aS'mother'
p6723
aasS'breast cancer patient history mother'
p6724
(lp6725
(lp6726
S'breast'
p6727
aS'cancer'
p6728
aS'patient'
p6729
aS'history'
p6730
aasS'currently her'
p6731
(lp6732
(lp6733
S'currently'
p6734
aS'her'
p6735
aasS'about family'
p6736
(lp6737
(lp6738
S'about'
p6739
aS'family'
p6740
aasS'cancer had history'
p6741
(lp6742
(lp6743
S'cancer'
p6744
aS'had'
p6745
aS'history'
p6746
aasS'complaining mother'
p6747
(lp6748
(lp6749
S'complaining'
p6750
aS'mother'
p6751
aasS'old died'
p6752
(lp6753
(lp6754
S'old'
p6755
aS'died'
p6756
aasS'cancer years'
p6757
(lp6758
(lp6759
S'cancer'
p6760
aS'years'
p6761
aasS'states mother'
p6762
(lp6763
(lp6764
S'states'
p6765
aS'mother'
p6766
aasS'breast family history her'
p6767
(lp6768
(lp6769
S'breast'
p6770
aS'family'
p6771
aS'history'
p6772
aS'her'
p6773
aasS'medical family father history'
p6774
(lp6775
(lp6776
S'medical'
p6777
aS'family'
p6778
aS'father'
p6779
aS'history'
p6780
aa(lp6781
S'medical'
p6782
aS'family'
p6783
aS'father'
p6784
aasS'well not'
p6785
(lp6786
(lp6787
S'well'
p6788
aS'not'
p6789
aasS'breast two cancer'
p6790
(lp6791
(lp6792
S'breast'
p6793
aS'two'
p6794
aS'cancer'
p6795
aa(lp6796
S'breast'
p6797
aS'two'
p6798
aasS'father she mother'
p6799
(lp6800
(lp6801
S'father'
p6802
aS'she'
p6803
aS'mother'
p6804
aasS'depression family mother'
p6805
(lp6806
(lp6807
S'depression'
p6808
aS'family'
p6809
aasS'stroke age history'
p6810
(lp6811
(lp6812
S'stroke'
p6813
aS'age'
p6814
aS'history'
p6815
aasS'per mother'
p6816
(lp6817
(lp6818
S'per'
p6819
aS'mother'
p6820
aasS'one two she'
p6821
(lp6822
(lp6823
S'one'
p6824
aS'two'
p6825
aS'she'
p6826
aasS'home her'
p6827
(lp6828
(lp6829
S'home'
p6830
aS'her'
p6831
aasS'brother his'
p6832
(lp6833
(lp6834
S'brother'
p6835
aS'his'
p6836
aasS'heart died mother'
p6837
(lp6838
(lp6839
S'heart'
p6840
aS'died'
p6841
aS'mother'
p6842
aasS'breast age had'
p6843
(lp6844
(lp6845
S'breast'
p6846
aS'age'
p6847
aS'had'
p6848
aasS'died age her mother'
p6849
(lp6850
(lp6851
S'died'
p6852
aS'age'
p6853
aS'her'
p6854
aS'mother'
p6855
aasS'colon cancer family'
p6856
(lp6857
(lp6858
S'colon'
p6859
aS'cancer'
p6860
aS'family'
p6861
aasS'cancer father history'
p6862
(lp6863
(lp6864
S'cancer'
p6865
aS'father'
p6866
aS'history'
p6867
aasS'also mother'
p6868
(lp6869
(lp6870
S'also'
p6871
aS'mother'
p6872
aasS'medical family patient history'
p6873
(lp6874
(lp6875
S'medical'
p6876
aS'family'
p6877
aS'patient'
p6878
aS'history'
p6879
aa(lp6880
S'medical'
p6881
aS'family'
p6882
aS'patient'
p6883
aasS'heart disease family history'
p6884
(lp6885
(lp6886
S'heart'
p6887
aS'disease'
p6888
aS'family'
p6889
aS'history'
p6890
aa(lp6891
S'heart'
p6892
aS'disease'
p6893
aS'family'
p6894
aasS'age family history mother'
p6895
(lp6896
(lp6897
S'age'
p6898
aS'family'
p6899
aS'history'
p6900
aS'mother'
p6901
aasS'or patient'
p6902
(lp6903
(lp6904
S'or'
p6905
aS'patient'
p6906
aasS'grandfather maternal family'
p6907
(lp6908
(lp6909
S'grandfather'
p6910
aS'maternal'
p6911
aS'family'
p6912
aasS'have she'
p6913
(lp6914
(lp6915
S'have'
p6916
aS'she'
p6917
aasS'sister his'
p6918
(lp6919
(lp6920
S'sister'
p6921
aS'his'
p6922
aasS'died family mother'
p6923
(lp6924
(lp6925
S'died'
p6926
aS'family'
p6927
aS'mother'
p6928
aasS'lives daughter'
p6929
(lp6930
(lp6931
S'lives'
p6932
aS'daughter'
p6933
aasS'diabetes family history'
p6934
(lp6935
(lp6936
S'diabetes'
p6937
aS'family'
p6938
aS'history'
p6939
aasS'ago years'
p6940
(lp6941
(lp6942
S'ago'
p6943
aS'years'
p6944
aasS'brother father'
p6945
(lp6946
(lp6947
S'brother'
p6948
aS'father'
p6949
aasS'concerns mother'
p6950
(lp6951
(lp6952
S'concerns'
p6953
aS'mother'
p6954
aasS'have history'
p6955
(lp6956
(lp6957
S'have'
p6958
aS'history'
p6959
aasS'ca died father'
p6960
(lp6961
(lp6962
S'ca'
p6963
aS'died'
p6964
aS'father'
p6965
aa(lp6966
S'ca'
p6967
aS'died'
p6968
aa(lp6969
S'ca'
p6970
aS'father'
p6971
aasS'does his'
p6972
(lp6973
(lp6974
S'does'
p6975
aS'his'
p6976
aasS'two sister'
p6977
(lp6978
(lp6979
S'two'
p6980
aS'sister'
p6981
aasS'daughter had she her'
p6982
(lp6983
(lp6984
S'daughter'
p6985
aS'had'
p6986
aS'she'
p6987
aS'her'
p6988
aa(lp6989
S'daughter'
p6990
aS'had'
p6991
aS'she'
p6992
aasS'states daughter she'
p6993
(lp6994
(lp6995
S'states'
p6996
aS'daughter'
p6997
aS'she'
p6998
aa(lp6999
S'states'
p7000
aS'daughter'
p7001
aasS'alcohol father her'
p7002
(lp7003
(lp7004
S'alcohol'
p7005
aS'father'
p7006
aS'her'
p7007
aasS'years died age father'
p7008
(lp7009
(lp7010
S'years'
p7011
aS'died'
p7012
aS'age'
p7013
aasS'heart her'
p7014
(lp7015
(lp7016
S'heart'
p7017
aS'her'
p7018
aasS'breast cancer'
p7019
(lp7020
(lp7021
S'breast'
p7022
aS'cancer'
p7023
aasS'age family father'
p7024
(lp7025
(lp7026
S'age'
p7027
aS'family'
p7028
aS'father'
p7029
aasS'side her'
p7030
(lp7031
(lp7032
S'side'
p7033
aS'her'
p7034
aasS'old his mother'
p7035
(lp7036
(lp7037
S'old'
p7038
aS'his'
p7039
aS'mother'
p7040
aasS'sons old years'
p7041
(lp7042
(lp7043
S'sons'
p7044
aS'old'
p7045
aS'years'
p7046
aa(lp7047
S'sons'
p7048
aS'old'
p7049
aasS'other but'
p7050
(lp7051
(lp7052
S'other'
p7053
aS'but'
p7054
aasS'cancer father'
p7055
(lp7056
(lp7057
S'cancer'
p7058
aS'father'
p7059
aasS'breast sister her'
p7060
(lp7061
(lp7062
S'breast'
p7063
aS'sister'
p7064
aS'her'
p7065
aasS'two had'
p7066
(lp7067
(lp7068
S'two'
p7069
aS'had'
p7070
aasS'coronary disease family history'
p7071
(lp7072
(lp7073
S'coronary'
p7074
aS'disease'
p7075
aS'family'
p7076
aS'history'
p7077
aa(lp7078
S'coronary'
p7079
aS'disease'
p7080
aS'family'
p7081
aasS'died father'
p7082
(lp7083
(lp7084
S'died'
p7085
aS'father'
p7086
aasS'this his'
p7087
(lp7088
(lp7089
S'this'
p7090
aS'his'
p7091
aasS'present illness patient history'
p7092
(lp7093
(lp7094
S'present'
p7095
aS'illness'
p7096
aS'patient'
p7097
aS'history'
p7098
aa(lp7099
S'present'
p7100
aS'illness'
p7101
aS'patient'
p7102
aasS'lives patient history'
p7103
(lp7104
(lp7105
S'lives'
p7106
aS'patient'
p7107
aS'history'
p7108
aasS'ear mom'
p7109
(lp7110
(lp7111
S'ear'
p7112
aS'mom'
p7113
aasS'sisters one'
p7114
(lp7115
(lp7116
S'sisters'
p7117
aS'one'
p7118
aasS'artery history coronary'
p7119
(lp7120
(lp7121
S'artery'
p7122
aS'history'
p7123
aS'coronary'
p7124
aa(lp7125
S'artery'
p7126
aS'history'
p7127
aasS'all she'
p7128
(lp7129
(lp7130
S'all'
p7131
aS'she'
p7132
aasS'report mom patient'
p7133
(lp7134
(lp7135
S'report'
p7136
aS'mom'
p7137
aasS'report patient'
p7138
(lp7139
(lp7140
S'report'
p7141
aS'patient'
p7142
aasS'kidney mother'
p7143
(lp7144
(lp7145
S'kidney'
p7146
aS'mother'
p7147
aasS'check mother'
p7148
(lp7149
(lp7150
S'check'
p7151
aS'mother'
p7152
aasS'male this history his mother'
p7153
(lp7154
(lp7155
S'male'
p7156
aS'this'
p7157
aS'history'
p7158
aasS'heart history'
p7159
(lp7160
(lp7161
S'heart'
p7162
aS'history'
p7163
aasS'male his mother'
p7164
(lp7165
(lp7166
S'male'
p7167
aS'his'
p7168
aS'mother'
p7169
aa(lp7170
S'male'
p7171
aS'mother'
p7172
aasS'asthma his'
p7173
(lp7174
(lp7175
S'asthma'
p7176
aS'his'
p7177
aasS'after her'
p7178
(lp7179
(lp7180
S'after'
p7181
aS'her'
p7182
aasS'currently father'
p7183
(lp7184
(lp7185
S'currently'
p7186
aS'father'
p7187
aasS'maternal her mother'
p7188
(lp7189
(lp7190
S'maternal'
p7191
aS'her'
p7192
aS'mother'
p7193
aasS'diabetes had'
p7194
(lp7195
(lp7196
S'diabetes'
p7197
aS'had'
p7198
aasS'currently who'
p7199
(lp7200
(lp7201
S'currently'
p7202
aS'who'
p7203
aasS'40 had history'
p7204
(lp7205
(lp7206
S'40'
p7207
aS'had'
p7208
aS'history'
p7209
aa(lp7210
S'40'
p7211
aS'had'
p7212
aa(lp7213
S'40'
p7214
aS'history'
p7215
aasS'hypertension mother'
p7216
(lp7217
(lp7218
S'hypertension'
p7219
aS'mother'
p7220
aasS'both mother'
p7221
(lp7222
(lp7223
S'both'
p7224
aS'mother'
p7225
aasS'reports his'
p7226
(lp7227
(lp7228
S'reports'
p7229
aS'his'
p7230
aasS'one years his'
p7231
(lp7232
(lp7233
S'one'
p7234
aS'years'
p7235
aasS'heart age father'
p7236
(lp7237
(lp7238
S'heart'
p7239
aS'age'
p7240
aS'father'
p7241
aasS'prostate cancer'
p7242
(lp7243
(lp7244
S'prostate'
p7245
aS'cancer'
p7246
aasS'diagnosed cancer'
p7247
(lp7248
(lp7249
S'diagnosed'
p7250
aS'cancer'
p7251
aasS'him his'
p7252
(lp7253
(lp7254
S'him'
p7255
aS'his'
p7256
aasS'been his'
p7257
(lp7258
(lp7259
S'been'
p7260
aS'his'
p7261
aasS'sons who'
p7262
(lp7263
(lp7264
S'sons'
p7265
aS'who'
p7266
aasS'daughter who'
p7267
(lp7268
(lp7269
S'daughter'
p7270
aS'who'
p7271
aasS'healthy who'
p7272
(lp7273
(lp7274
S'healthy'
p7275
aS'who'
p7276
aasS'also father'
p7277
(lp7278
(lp7279
S'also'
p7280
aS'father'
p7281
aasS'know she'
p7282
(lp7283
(lp7284
S'know'
p7285
aS'she'
p7286
aasS'does not patient'
p7287
(lp7288
(lp7289
S'does'
p7290
aS'not'
p7291
aS'patient'
p7292
aasS'subjective his transcription report sample medical'
p7293
(lp7294
(lp7295
S'subjective'
p7296
aS'his'
p7297
aS'report'
p7298
aS'sample'
p7299
aa(lp7300
S'subjective'
p7301
aS'his'
p7302
aS'report'
p7303
aa(lp7304
S'subjective'
p7305
aS'his'
p7306
aS'sample'
p7307
aa(lp7308
S'subjective'
p7309
aS'his'
p7310
aasS'who father'
p7311
(lp7312
(lp7313
S'who'
p7314
aS'father'
p7315
aasS'one daughter'
p7316
(lp7317
(lp7318
S'one'
p7319
aS'daughter'
p7320
aasS'mi fhx father died'
p7321
(lp7322
(lp7323
S'mi'
p7324
aS'fhx'
p7325
aS'father'
p7326
aS'died'
p7327
aa(lp7328
S'mi'
p7329
aS'fhx'
p7330
aS'father'
p7331
aasS'family mother'
p7332
(lp7333
(lp7334
S'family'
p7335
aS'mother'
p7336
aasS'patient mother'
p7337
(lp7338
(lp7339
S'patient'
p7340
aS'mother'
p7341
aasS'or had mother'
p7342
(lp7343
(lp7344
S'or'
p7345
aS'had'
p7346
aS'mother'
p7347
aa(lp7348
S'or'
p7349
aS'had'
p7350
aasS'home daughter she her'
p7351
(lp7352
(lp7353
S'home'
p7354
aS'daughter'
p7355
aS'her'
p7356
aasS'also father history'
p7357
(lp7358
(lp7359
S'also'
p7360
aS'father'
p7361
aS'history'
p7362
aasS'age her mother'
p7363
(lp7364
(lp7365
S'age'
p7366
aS'her'
p7367
aS'mother'
p7368
aasS'brother family history'
p7369
(lp7370
(lp7371
S'brother'
p7372
aS'family'
p7373
aS'history'
p7374
aasS'here this his mother'
p7375
(lp7376
(lp7377
S'here'
p7378
aS'this'
p7379
aS'his'
p7380
aS'mother'
p7381
aa(lp7382
S'here'
p7383
aS'this'
p7384
aS'his'
p7385
aasS'sisters no'
p7386
(lp7387
(lp7388
S'sisters'
p7389
aS'no'
p7390
aasS'father history his'
p7391
(lp7392
(lp7393
S'father'
p7394
aS'history'
p7395
aS'his'
p7396
aasS'problems father'
p7397
(lp7398
(lp7399
S'problems'
p7400
aS'father'
p7401
aasS'well her'
p7402
(lp7403
(lp7404
S'well'
p7405
aS'her'
p7406
aasS'failure died mother'
p7407
(lp7408
(lp7409
S'failure'
p7410
aS'died'
p7411
aS'mother'
p7412
aasS'disorder patient'
p7413
(lp7414
(lp7415
S'disorder'
p7416
aS'patient'
p7417
aasS'diabetes family history mother'
p7418
(lp7419
(lp7420
S'diabetes'
p7421
aS'family'
p7422
aS'history'
p7423
aS'mother'
p7424
aasS'heart brother had age'
p7425
(lp7426
(lp7427
S'heart'
p7428
aS'brother'
p7429
aS'had'
p7430
aasS'not she'
p7431
(lp7432
(lp7433
S'not'
p7434
aS'she'
p7435
aasS'sister years history'
p7436
(lp7437
(lp7438
S'sister'
p7439
aS'years'
p7440
aasS'illness his'
p7441
(lp7442
(lp7443
S'illness'
p7444
aS'his'
p7445
aasS'had father history'
p7446
(lp7447
(lp7448
S'had'
p7449
aS'father'
p7450
aS'history'
p7451
aasS'cancer family history her mother'
p7452
(lp7453
(lp7454
S'cancer'
p7455
aS'family'
p7456
aS'history'
p7457
aS'her'
p7458
aS'mother'
p7459
aasS'died family father history her'
p7460
(lp7461
(lp7462
S'died'
p7463
aS'family'
p7464
aS'father'
p7465
aS'history'
p7466
aS'her'
p7467
aasS'daughter her'
p7468
(lp7469
(lp7470
S'daughter'
p7471
aS'her'
p7472
aasS'failure her mother'
p7473
(lp7474
(lp7475
S'failure'
p7476
aS'her'
p7477
aS'mother'
p7478
aasS'nursing home she'
p7479
(lp7480
(lp7481
S'nursing'
p7482
aS'home'
p7483
aasS'drove his'
p7484
(lp7485
(lp7486
S'drove'
p7487
aS'his'
p7488
aasS'she his'
p7489
(lp7490
(lp7491
S'she'
p7492
aS'his'
p7493
aasS'today sample medical mom patient'
p7494
(lp7495
(lp7496
S'today'
p7497
aS'sample'
p7498
aS'mom'
p7499
aasS'she her'
p7500
(lp7501
(lp7502
S'she'
p7503
aS'her'
p7504
aasS'breast cancer had'
p7505
(lp7506
(lp7507
S'breast'
p7508
aS'cancer'
p7509
aS'had'
p7510
aasS'been years'
p7511
(lp7512
(lp7513
S'been'
p7514
aS'years'
p7515
aasS'report medical'
p7516
(lp7517
(lp7518
S'report'
p7519
aS'medical'
p7520
aasS'because patient'
p7521
(lp7522
(lp7523
S'because'
p7524
aS'patient'
p7525
aasS'breast age'
p7526
(lp7527
(lp7528
S'breast'
p7529
aS'age'
p7530
aasS'because her'
p7531
(lp7532
(lp7533
S'because'
p7534
aS'her'
p7535
aasS'family father history his'
p7536
(lp7537
(lp7538
S'family'
p7539
aS'father'
p7540
aS'history'
p7541
aS'his'
p7542
aasS'cancer patient history'
p7543
(lp7544
(lp7545
S'cancer'
p7546
aS'patient'
p7547
aS'history'
p7548
aasS'cancer who'
p7549
(lp7550
(lp7551
S'cancer'
p7552
aS'who'
p7553
aasS'stroke father'
p7554
(lp7555
(lp7556
S'stroke'
p7557
aS'father'
p7558
aasS'not patient'
p7559
(lp7560
(lp7561
S'not'
p7562
aS'patient'
p7563
aasS'office his'
p7564
(lp7565
(lp7566
S'office'
p7567
aS'his'
p7568
aasS'died age family father'
p7569
(lp7570
(lp7571
S'died'
p7572
aS'age'
p7573
aS'family'
p7574
aS'father'
p7575
aasS'currently mother'
p7576
(lp7577
(lp7578
S'currently'
p7579
aS'mother'
p7580
aasS'admits patient history'
p7581
(lp7582
(lp7583
S'admits'
p7584
aS'patient'
p7585
aS'history'
p7586
aasS'heart who'
p7587
(lp7588
(lp7589
S'heart'
p7590
aS'who'
p7591
aasS'breast had'
p7592
(lp7593
(lp7594
S'breast'
p7595
aS'had'
p7596
aasS'lives father'
p7597
(lp7598
(lp7599
S'lives'
p7600
aS'father'
p7601
aasS'who family mother'
p7602
(lp7603
(lp7604
S'who'
p7605
aS'family'
p7606
aS'mother'
p7607
aasS'also his'
p7608
(lp7609
(lp7610
S'also'
p7611
aS'his'
p7612
aasS'type description sample'
p7613
(lp7614
(lp7615
S'type'
p7616
aS'description'
p7617
aasS'old about years his mother'
p7618
(lp7619
(lp7620
S'old'
p7621
aS'about'
p7622
aS'his'
p7623
aS'mother'
p7624
aa(lp7625
S'old'
p7626
aS'about'
p7627
aS'his'
p7628
aa(lp7629
S'old'
p7630
aS'about'
p7631
aS'mother'
p7632
aa(lp7633
S'old'
p7634
aS'about'
p7635
aas.